Certificate:
    Data:
        Version: 3 (0x2)
        Serial Number:
            14:43:3d:6a:11:a6:76:af:5d:09:82:58:2d:92:46:ee
        Signature Algorithm: sha256WithRSAEncryption
        Issuer: C=ES, O=Stratio, CN=Labs team CA
        Validity
            Not Before: Mar 20 13:12:00 2020 GMT
            Not After : Mar 20 13:12:00 2021 GMT
        Subject: C=ES, O=Stratio, CN=agent-1
        Subject Public Key Info:
            Public Key Algorithm: rsaEncryption
                RSA Public-Key: (2048 bit)
                Modulus:
                    00:d5:32:c1:f1:4f:93:21:d1:ae:46:d6:8c:03:bb:
                    11:46:68:17:84:40:a1:7d:08:1b:cf:0c:dd:89:d3:
                    e8:1f:f2:4d:c9:54:93:23:fd:f5:7e:2c:a7:e2:3b:
                    2f:15:60:ab:f5:4b:4f:1a:89:cd:de:4d:1a:b2:d4:
                    eb:8c:f3:bf:6b:0e:d2:8e:bb:ee:6a:a4:62:bf:6a:
                    b8:a1:b3:7f:d4:0b:9c:3b:a6:a0:ce:fc:c8:6f:3f:
                    7a:23:a5:f7:90:f8:e0:86:2a:7b:5c:64:b9:d8:3a:
                    e0:01:8b:4a:7c:d9:f4:dd:2f:e3:87:ad:a1:16:27:
                    8f:ec:17:62:f9:f4:3c:89:66:87:9c:1e:30:da:af:
                    0c:cb:0e:31:3f:70:20:05:4b:b3:e9:ad:0f:34:d6:
                    67:e9:0b:9e:f1:16:b5:0a:b4:87:e5:32:fc:1b:af:
                    b5:39:05:dd:18:70:8a:3e:1a:2c:c2:c2:1a:45:63:
                    fc:24:16:92:1b:36:7b:db:72:95:91:dd:f5:dd:bf:
                    55:86:1e:18:55:36:1b:74:dc:6b:0f:04:8c:de:09:
                    b5:ee:47:1f:2d:70:4f:fa:3a:ed:54:b7:a3:7b:76:
                    2f:9f:e6:88:7e:fc:53:0f:17:cf:d4:99:ca:09:ac:
                    d3:ec:eb:df:22:70:22:34:ca:09:b0:1d:68:2b:94:
                    4a:4f
                Exponent: 65537 (0x10001)
        X509v3 extensions:
            Authority Information Access: 
                CA Issuers - URI:http://labs-ca.stratio.com/labs-ca.crt
                OCSP - URI:http://ocsp.labs-ca.stratio.com:9081

            X509v3 Authority Key Identifier: 
                keyid:09:29:3F:86:66:E6:A2:74:16:B9:F5:E2:24:ED:B6:14:82:AD:75:52

            X509v3 Basic Constraints: critical
                CA:FALSE
            X509v3 CRL Distribution Points: 

                Full Name:
                  URI:http://labs-ca.stratio.com/labs-ca.crl

            X509v3 Extended Key Usage: 
                TLS Web Client Authentication, TLS Web Server Authentication
            X509v3 Key Usage: critical
                Digital Signature, Key Encipherment
            X509v3 Subject Key Identifier: 
                C8:8C:B6:F3:AF:D2:B0:13:74:FD:82:40:EB:7C:49:FB:F7:DC:C8:1D
            X509v3 Subject Alternative Name: 
                DNS:agent-1, DNS:agent-1.kraken.cluster
    Signature Algorithm: sha256WithRSAEncryption
         4b:ac:aa:19:58:15:3f:b5:8a:79:85:8c:9e:38:b3:d9:fe:cf:
         39:fa:47:5e:55:51:db:c4:db:d7:1d:0b:f5:34:7e:1c:a5:b6:
         93:90:65:14:a9:25:39:bb:75:ca:72:80:a0:5b:be:93:25:d3:
         12:d5:3c:26:37:3a:68:2c:50:bf:86:24:0c:c0:0b:e6:48:ab:
         55:99:dc:85:ed:62:3f:ae:f8:50:ad:00:6a:6e:67:c9:2b:0b:
         c7:e7:8c:11:0b:f7:83:40:01:ef:fc:41:6b:95:9d:66:f2:a0:
         ad:2e:e1:3b:2d:57:1a:5c:af:46:e7:b5:83:a5:0d:8e:67:5b:
         6f:ef:a7:54:12:d0:04:b4:e7:f3:f4:3f:ba:9b:e8:85:2b:8d:
         5e:85:44:d6:d0:5f:72:e4:02:4e:09:14:f4:e4:a1:25:3b:58:
         80:c4:28:2a:7e:37:d3:ea:97:83:2b:31:5b:db:8a:a3:a1:ea:
         21:d1:c5:ec:f5:b9:c4:16:3e:86:09:a2:90:18:72:50:f7:9e:
         c8:b8:6b:08:ef:38:76:a7:4f:bd:fc:a4:41:a6:c7:69:bd:3a:
         90:29:e1:11:ba:ac:cf:73:6b:d4:97:52:4b:55:d6:fe:ee:a8:
         82:84:5a:0a:15:9a:47:66:3c:b2:de:fe:bb:fb:a7:f4:69:5c:
         1d:86:e9:0a:aa:fa:d1:63:84:43:84:65:56:5c:04:9c:d0:d5:
         6c:f0:42:2b:f1:cb:8a:b8:fe:e4:f3:65:79:9a:c6:f8:42:81:
         0a:60:37:f9:f5:75:a5:9f:c4:26:71:22:45:77:6c:ca:f1:f8:
         ab:b7:51:c6:8c:a0:81:5a:99:27:60:f0:6b:dc:13:cc:c6:74:
         a8:1f:65:df:bf:20:36:2c:8a:ca:08:e7:5e:10:ed:14:40:cc:
         02:20:7b:20:71:5c:7f:d9:df:b1:c6:4b:16:6a:6a:a8:97:67:
         42:50:88:f9:0e:60:73:1b:f5:54:30:ec:e2:9c:e8:4b:c7:2b:
         55:01:34:a2:c3:3b:01:88:2d:05:da:29:cd:dc:2b:b5:17:86:
         d3:5a:b0:11:15:40:0b:b6:0a:d1:de:6d:99:c3:c4:cd:97:5c:
         f6:33:04:70:24:02:10:f7:75:a7:5d:e6:0e:1f:63:52:2c:21:
         d5:76:7c:1c:a7:b4:6a:03:52:90:dd:08:23:26:ed:04:e3:c0:
         3a:5b:07:bc:d8:14:20:e4:e4:9a:32:70:b7:15:3b:81:a5:18:
         4f:e5:dc:d9:d1:fb:44:58:23:04:32:1e:97:c7:01:6e:fb:b0:
         8a:56:c5:ce:f5:73:11:91:e5:53:61:88:4c:7c:3f:13:a6:e9:
         99:51:f9:e1:29:ba:34:97
-----BEGIN CERTIFICATE-----
MIIFTzCCAzegAwIBAgIQFEM9ahGmdq9dCYJYLZJG7jANBgkqhkiG9w0BAQsFADA2
MQswCQYDVQQGEwJFUzEQMA4GA1UECgwHU3RyYXRpbzEVMBMGA1UEAwwMTGFicyB0
ZWFtIENBMB4XDTIwMDMyMDEzMTIwMFoXDTIxMDMyMDEzMTIwMFowMTELMAkGA1UE
BhMCRVMxEDAOBgNVBAoMB1N0cmF0aW8xEDAOBgNVBAMMB2FnZW50LTEwggEiMA0G
CSqGSIb3DQEBAQUAA4IBDwAwggEKAoIBAQDVMsHxT5Mh0a5G1owDuxFGaBeEQKF9
CBvPDN2J0+gf8k3JVJMj/fV+LKfiOy8VYKv1S08aic3eTRqy1OuM879rDtKOu+5q
pGK/arihs3/UC5w7pqDO/MhvP3ojpfeQ+OCGKntcZLnYOuABi0p82fTdL+OHraEW
J4/sF2L59DyJZoecHjDarwzLDjE/cCAFS7PprQ801mfpC57xFrUKtIflMvwbr7U5
Bd0YcIo+GizCwhpFY/wkFpIbNnvbcpWR3fXdv1WGHhhVNht03GsPBIzeCbXuRx8t
cE/6Ou1Ut6N7di+f5oh+/FMPF8/UmcoJrNPs698icCI0ygmwHWgrlEpPAgMBAAGj
ggFcMIIBWDB0BggrBgEFBQcBAQRoMGYwMgYIKwYBBQUHMAKGJmh0dHA6Ly9sYWJz
LWNhLnN0cmF0aW8uY29tL2xhYnMtY2EuY3J0MDAGCCsGAQUFBzABhiRodHRwOi8v
b2NzcC5sYWJzLWNhLnN0cmF0aW8uY29tOjkwODEwHwYDVR0jBBgwFoAUCSk/hmbm
onQWufXiJO22FIKtdVIwDAYDVR0TAQH/BAIwADA3BgNVHR8EMDAuMCygKqAohiZo
dHRwOi8vbGFicy1jYS5zdHJhdGlvLmNvbS9sYWJzLWNhLmNybDAdBgNVHSUEFjAU
BggrBgEFBQcDAgYIKwYBBQUHAwEwDgYDVR0PAQH/BAQDAgWgMB0GA1UdDgQWBBTI
jLbzr9KwE3T9gkDrfEn799zIHTAqBgNVHREEIzAhggdhZ2VudC0xghZhZ2VudC0x
LmtyYWtlbi5jbHVzdGVyMA0GCSqGSIb3DQEBCwUAA4ICAQBLrKoZWBU/tYp5hYye
OLPZ/s85+kdeVVHbxNvXHQv1NH4cpbaTkGUUqSU5u3XKcoCgW76TJdMS1TwmNzpo
LFC/hiQMwAvmSKtVmdyF7WI/rvhQrQBqbmfJKwvH54wRC/eDQAHv/EFrlZ1m8qCt
LuE7LVcaXK9G57WDpQ2OZ1tv76dUEtAEtOfz9D+6m+iFK41ehUTW0F9y5AJOCRT0
5KElO1iAxCgqfjfT6peDKzFb24qjoeoh0cXs9bnEFj6GCaKQGHJQ957IuGsI7zh2
p0+9/KRBpsdpvTqQKeERuqzPc2vUl1JLVdb+7qiChFoKFZpHZjyy3v67+6f0aVwd
hukKqvrRY4RDhGVWXASc0NVs8EIr8cuKuP7k82V5msb4QoEKYDf59XWln8QmcSJF
d2zK8firt1HGjKCBWpknYPBr3BPMxnSoH2XfvyA2LIrKCOdeEO0UQMwCIHsgcVx/
2d+xxksWamqol2dCUIj5DmBzG/VUMOzinOhLxytVATSiwzsBiC0F2inN3Cu1F4bT
WrARFUALtgrR3m2Zw8TNl1z2MwRwJAIQ93WnXeYOH2NSLCHVdnwcp7RqA1KQ3Qgj
Ju0E48A6Wwe82BQg5OSaMnC3FTuBpRhP5dzZ0ftEWCMEMh6XxwFu+7CKVsXO9XMR
keVTYYhMfD8TpumZUfnhKbo0lw==
-----END CERTIFICATE-----
-----BEGIN CERTIFICATE-----
MIIFOjCCAyKgAwIBAgIQdWSbQJ/CYk1/BERap1nTPTANBgkqhkiG9w0BAQsFADA4
MQswCQYDVQQGEwJFUzEQMA4GA1UECgwHU3RyYXRpbzEXMBUGA1UEAwwOU3RyYXRp
byBJbmMgQ0EwHhcNMTYxMDIxMTUxNjEyWhcNMjYxMDE5MTUxNjEyWjA2MQswCQYD
VQQGEwJFUzEQMA4GA1UECgwHU3RyYXRpbzEVMBMGA1UEAwwMTGFicyB0ZWFtIENB
MIICIjANBgkqhkiG9w0BAQEFAAOCAg8AMIICCgKCAgEAtMw5w9bxjXur+T3A/sFE
cDCKxvKWU1Um86puh36D3Zc55/aTpNzq8UqyEtTUbr9xuqpkriQWPZcS3CZEDW0w
nEXmZ6/ukQ059T9wv6P+YGEXMqaVHn3qPGwiZ8WbClVrGfDwTl+9sfqvfR6keJq8
rJkxE21ECW94ikI7Tk19s0Rz62xf+/FFRndQbTsech9Opi4TC2zMd9h9rPyRwfSm
VHMKPmqm+nnAoDjBlUalxjt+n7Vs269ZBqfusn25Em+BIMwU4z13csHIuZuB/mvm
qipxc2VHHrvhlCeoSgqWnNvmok4D8Ug+9sASAKYn1stdkSxCqwLLWb9PR/fUcqor
vz1S8KNc07c7IIt2ip5sXGWSJKIazak4CHiJGEQ11jO4NOFsXp+tDaQgT/21Aq45
zHJyf9ymT8c0ztwe9oQI1UYXHyopfyW1o9Ca5/MxQeXWcCPEFE1IMoA/e6vDWF09
liDOZl94lSwZ2ev+zGGDN+WU4ZojCbjdLCv/tbuSdyiTd4jV6dCShObyWMc6l+TA
fHvHFkxD29MDC165evoSXWMZtqriyt2h/9kWmqgblpz0oJ4kFPQ9RY5n34FHMSva
bkSTWkjcV8m6/4YDaRWYTo7a+ObJ9a6sk0J8pfYYcpwn4QoFS+12IA95ea51TWN1
bEoIFaVEqBDy5y3Qe7JSWNkCAwEAAaNCMEAwDwYDVR0TAQH/BAUwAwEB/zAOBgNV
HQ8BAf8EBAMCAQYwHQYDVR0OBBYEFAkpP4Zm5qJ0Frn14iTtthSCrXVSMA0GCSqG
SIb3DQEBCwUAA4ICAQA/Pnv9Lf/Ic/EeJYjFGZ84bICIZ/cFFNPcb4lWc7zJNOg2
690t748MwqDUQYvCL4f5Dh+rvssLxK/FlMGDiw4UrZGHdHS5u3bTTUrbwG1NHQKR
nthdz1xtx/TlBn4NvqVokcB7AkC5XVwpTvvVvcgpRp+ffYK3gd6arOb6oOOzRYDa
wFgPEZdZrbREh9p1k0NpbkUcmNiNMjQhV+DqVvGI+pYTOP4686Q4PvC7OGma5X3T
0MWwUJ3iMPdo4qAGJB8GV4XbyPapMd7vqFzsf18yAKmT9Q2afr1U1KCQ/zourY1u
qBeor5CzJzCDqLDxgXrBauVwB844Epa24x98RQGfZuIULZGPn0Sf8sF4L2bwmBBQ
M29yAWO4DLEZU0yqQTUHV7oJmNN+i0iE4wNSlC/Gz/wV3LCG+tseQkgvRziN8hwo
TGg6n9EvT2NdD0QpzJ2D7PQeJIytKEYzJKVRCZkn3Xcoy1SzIKiG0xDLME22rjFu
vWFyw1r/OnErIM7RL4GLZ3gAm00CRq4e2GarcEeLAq1d7rcSxV5/84pOIX9mH7PN
JTg5js6pOn9hrZWmmwRKYYVTPFqkAlTurrO0NjOT/kmDdHT0Xnaq0LRg0bKa79iD
JcylT5C08PAJX5S9esPXhNwS6rxMwk1ApmdE5USs/hn3geDAebJ0aRwIwnX5+g==
-----END CERTIFICATE-----
-----BEGIN CERTIFICATE-----
MIIFPDCCAySgAwIBAgIQdWSbQJ/CYk1/BERap1nTNjANBgkqhkiG9w0BAQsFADA4
MQswCQYDVQQGEwJFUzEQMA4GA1UECgwHU3RyYXRpbzEXMBUGA1UEAwwOU3RyYXRp
byBJbmMgQ0EwHhcNMTYwMjE5MTEzODI2WhcNMjYwMjE2MTEzODI2WjA4MQswCQYD
VQQGEwJFUzEQMA4GA1UECgwHU3RyYXRpbzEXMBUGA1UEAwwOU3RyYXRpbyBJbmMg
Q0EwggIiMA0GCSqGSIb3DQEBAQUAA4ICDwAwggIKAoICAQC2boA0hxlI9cDcSrt9
56lPnNuQ0ek/NnuWw6dsGXZeC1RHBR5m3/0jGnKRMpW2PpmTp7eG2ngOCbZMd5tG
hZHoposlCHSjRrJvhXWPRDP52WvtSgsckcJtKw1uoo3lqZGBPAHpvg3ExxcWY8Q/
b7H3Rc0zY2nM/whiayJPwO4+wE3gGiQwFrvsaekFjX/bNwBnZRiSAHm6iYeL0qfw
vSUwBcs0Wzh2yCKOuNqnuk+xFy3iaj5ADWGDxhm4Qf4q5UKJCriYZnWWSn0CDIHl
ZPc05sXERO52OCyzAG5Bm8qCGeCBtgpFQtHf72gbJFfSqJKs0VQ7U8N9ucI3NAEp
vt0NDXALF+4EoyV+0vCrq4U5f7geUSKPSEZWI2lpyz+NCZ95BrTFSHLDuNsTXJLn
mJjOYCymAm5luKA6DQw3HyNXIndgKV2e5BfhSWx3HP4J0DxO7kB2F1APUSijNZAe
2x6x+SO85CR6dT46pEvoGypD8EiRRoDHbQ8Vw1ulVh8nXoJzCs8v3exQUt1ZG7G1
Pcmp/S4xPF0Y6/HP0IIe2pxJ4uzOYaaARki3AI8pwHfD6OON6tRC0wjnPB4qYPta
nVJo4Nr/UWmq8vpgLKrI2kE3ceiPkNgb7/cXepyseTDBQidvCwV/ZyixmafwDgDi
02zN/FI4yS3aMtpyXtrTkKlLXwIDAQABo0IwQDAPBgNVHRMBAf8EBTADAQH/MA4G
A1UdDwEB/wQEAwIBBjAdBgNVHQ4EFgQU1T68/Oa44A7bgn6wxN1deQVukKQwDQYJ
KoZIhvcNAQELBQADggIBAEGTbgPUdRcWCgLclrbIOJ9wNC/T0LhmAuMyPtXJVfoj
aH1XlWWGZw9CTAD0/d/W1cE0QwLi7MI0IWV6Lb4VjaogXIga7ND5uLzZ5iJb7SK8
+gjK0d8hpGUKrwLzS6jUuL4vieM9DF7/VPi4EJm4EL35QfNpnb4Y17yOY1FZwZjt
wlPZWGrG0plRTi70/Mgic4a3KtC1I33RUUruF3nk+Fm+VEJJzmoOi01JwDwuM1hT
6lI4USNLp2vy4l1iJSdBSlwwNEthv1C/eHqC2XkH8Kr6kufW8s2Cnqu1tHJ/U+ns
/m5dDcrP22i/toDKVwOdquFdB4bg42PWyKeQi85UlHVSPwlTiB7gXZi97vtIDlIf
YZ6V3zy4fSUudaBXEm4IOY7IoRFB1zoqSj86KtufjOLAfqAcUFqYJGKEIfjbGist
agDKh5VRTtmgWnCSp252h27UHrYMWSv9/oi6H7m9dv5ZBuUgeYnxsgZYDgic4xA8
0POOWAiMwYdoIQwQghdGLRDuXT8krg8/ery42xmIvqW0xpJzROAVzWgtEUFFtFfM
nrFjf2b4o6Mw8A6AflbL1zeRuum/Uz+sFVVSUS1uzWrIRSTN6M2tRpu6EuRuNCJk
NXxqQ5v3iBCpoKsXEBqDeymnT4WEFqv+Rq2ZHbticZ+vXbu8039fau7bdmVS9Bjj
-----END CERTIFICATE-----
