Certificate:
    Data:
        Version: 3 (0x2)
        Serial Number:
            14:43:3d:6a:11:a6:76:af:5d:09:82:58:2d:92:46:f1
        Signature Algorithm: sha256WithRSAEncryption
        Issuer: C=ES, O=Stratio, CN=Labs team CA
        Validity
            Not Before: Mar 20 13:12:01 2020 GMT
            Not After : Mar 20 13:12:01 2021 GMT
        Subject: C=ES, O=Stratio, CN=agent-2
        Subject Public Key Info:
            Public Key Algorithm: rsaEncryption
                RSA Public-Key: (2048 bit)
                Modulus:
                    00:b4:58:cc:38:3b:33:68:ec:f3:a2:f6:71:f7:63:
                    f0:14:19:4c:02:be:d8:7a:2b:f0:45:8a:c9:e4:24:
                    e6:b0:0f:71:42:88:43:85:8c:b5:0d:97:f7:b9:21:
                    0a:23:a1:47:10:0c:ad:43:cd:d5:4c:02:f7:6c:85:
                    65:93:1a:ee:d9:cd:00:93:1f:a3:f5:68:bd:7f:69:
                    ee:31:7f:dc:33:b7:99:a8:0c:c6:82:96:7e:68:42:
                    f0:c3:26:7a:cf:bf:4d:6c:ed:e1:24:52:66:a0:0f:
                    f3:01:e0:f0:83:4f:31:86:37:a3:43:08:1e:9b:74:
                    36:4d:76:ef:de:e9:47:ee:69:d9:4e:38:c0:6a:6d:
                    72:b5:7e:4f:e7:d5:f1:9f:c1:74:c3:60:aa:60:86:
                    95:c1:d2:2e:19:cd:46:1c:16:ec:b3:c0:36:b7:74:
                    88:b5:83:bf:12:88:4a:57:e6:a9:20:02:a3:ea:67:
                    0a:78:34:d7:31:91:4c:d0:4d:30:af:c9:da:27:1b:
                    c1:28:e7:9e:90:6d:78:61:36:53:d7:41:f4:03:f9:
                    d3:32:41:e1:a8:49:a4:fb:1e:a4:13:d4:ac:43:f7:
                    cb:cf:16:87:18:01:58:ed:a6:4b:e2:ad:26:e4:44:
                    c0:21:3e:e1:86:7f:f3:36:84:ad:c8:2d:d7:02:16:
                    67:0f
                Exponent: 65537 (0x10001)
        X509v3 extensions:
            Authority Information Access: 
                CA Issuers - URI:http://labs-ca.stratio.com/labs-ca.crt
                OCSP - URI:http://ocsp.labs-ca.stratio.com:9081

            X509v3 Authority Key Identifier: 
                keyid:09:29:3F:86:66:E6:A2:74:16:B9:F5:E2:24:ED:B6:14:82:AD:75:52

            X509v3 Basic Constraints: critical
                CA:FALSE
            X509v3 CRL Distribution Points: 

                Full Name:
                  URI:http://labs-ca.stratio.com/labs-ca.crl

            X509v3 Extended Key Usage: 
                TLS Web Client Authentication, TLS Web Server Authentication
            X509v3 Key Usage: critical
                Digital Signature, Key Encipherment
            X509v3 Subject Key Identifier: 
                69:C7:08:8C:3F:35:42:51:6A:25:86:9B:F1:D4:B4:80:8D:71:72:8D
            X509v3 Subject Alternative Name: 
                DNS:agent-2, DNS:agent-2.kraken.cluster
    Signature Algorithm: sha256WithRSAEncryption
         82:24:d1:9d:85:fb:4b:c7:2e:f0:91:e3:2f:bc:9d:81:0e:c0:
         29:10:be:da:0d:df:ed:12:41:51:ee:c2:55:c5:47:23:2e:ce:
         ae:89:a1:17:23:53:21:6d:10:55:5c:7d:9a:30:f0:23:ac:e7:
         60:4d:dd:00:2e:40:19:4a:ad:f9:4a:2a:44:08:1a:c3:0f:20:
         4c:5b:14:19:77:9b:c4:1d:67:6e:7e:69:c4:c6:7d:40:d9:1b:
         3a:3d:8e:6d:92:45:06:53:39:e0:48:c8:a5:4a:ec:9a:05:fa:
         02:53:f8:b3:e2:40:8b:4c:be:1b:fd:ce:53:14:60:4d:45:88:
         c7:1f:e0:59:46:04:9a:d7:6b:51:77:b3:20:a5:9d:25:bb:ab:
         aa:77:16:b0:c2:c6:e0:e3:cf:d4:5e:0c:43:d6:6a:54:ff:fa:
         a7:1e:72:ca:85:05:fa:25:df:1a:c8:ca:2a:27:cf:91:ee:2c:
         c3:48:b4:b1:01:e1:50:a0:3c:1c:97:4d:c0:95:ea:12:cf:d1:
         79:9c:61:58:d3:6c:63:3f:d2:07:3b:ac:a8:87:40:e2:a1:93:
         a3:54:4a:63:ce:cb:bf:7a:50:87:4e:4f:a3:e5:73:1e:58:1f:
         d7:94:0b:7d:74:d9:9d:52:c6:ae:e5:dd:c1:3a:6a:cf:a2:84:
         da:a8:c7:15:42:90:73:0a:9b:03:0f:ef:be:a5:25:9b:9a:18:
         12:f4:96:73:e1:63:22:13:10:be:4f:b4:ad:7e:f8:31:58:0d:
         54:58:c5:df:3a:36:86:48:9f:15:67:6b:20:39:c3:46:41:1c:
         f8:12:8c:c5:e3:f0:5d:f0:13:68:af:20:a5:f8:f0:68:64:3d:
         a5:a1:b3:dd:34:47:d9:65:6a:17:ed:34:88:2d:b4:37:75:ad:
         da:47:0c:fc:ab:c5:a3:ec:ec:3f:66:07:c7:a1:e4:5e:4b:1e:
         13:3a:3e:38:ff:0f:a7:a0:95:40:c1:aa:b3:e9:a0:9c:9b:44:
         1d:f9:79:52:ae:df:8e:f1:fb:ae:ee:b3:9b:b8:de:3f:27:f5:
         ed:7e:6c:b4:94:9c:57:e2:bf:9d:3b:a0:95:47:1a:9b:18:1e:
         ae:3a:83:4f:88:38:18:67:d1:18:97:17:8f:5d:f3:d3:68:f7:
         10:21:55:9f:86:6d:df:20:ad:96:49:61:ad:20:70:44:59:b3:
         2b:fa:5a:0f:c6:06:6f:f6:14:53:e1:63:c8:c2:7c:d0:4c:d5:
         db:ee:c9:73:12:9b:84:1c:64:f4:90:0b:8d:ff:12:70:f8:be:
         3a:05:c2:80:d8:a2:b9:00:9c:7d:0f:44:78:40:78:e6:17:02:
         3c:34:68:c4:ce:70:c0:43
-----BEGIN CERTIFICATE-----
MIIFTzCCAzegAwIBAgIQFEM9ahGmdq9dCYJYLZJG8TANBgkqhkiG9w0BAQsFADA2
MQswCQYDVQQGEwJFUzEQMA4GA1UECgwHU3RyYXRpbzEVMBMGA1UEAwwMTGFicyB0
ZWFtIENBMB4XDTIwMDMyMDEzMTIwMVoXDTIxMDMyMDEzMTIwMVowMTELMAkGA1UE
BhMCRVMxEDAOBgNVBAoMB1N0cmF0aW8xEDAOBgNVBAMMB2FnZW50LTIwggEiMA0G
CSqGSIb3DQEBAQUAA4IBDwAwggEKAoIBAQC0WMw4OzNo7POi9nH3Y/AUGUwCvth6
K/BFisnkJOawD3FCiEOFjLUNl/e5IQojoUcQDK1DzdVMAvdshWWTGu7ZzQCTH6P1
aL1/ae4xf9wzt5moDMaCln5oQvDDJnrPv01s7eEkUmagD/MB4PCDTzGGN6NDCB6b
dDZNdu/e6UfuadlOOMBqbXK1fk/n1fGfwXTDYKpghpXB0i4ZzUYcFuyzwDa3dIi1
g78SiEpX5qkgAqPqZwp4NNcxkUzQTTCvydonG8Eo556QbXhhNlPXQfQD+dMyQeGo
SaT7HqQT1KxD98vPFocYAVjtpkvirSbkRMAhPuGGf/M2hK3ILdcCFmcPAgMBAAGj
ggFcMIIBWDB0BggrBgEFBQcBAQRoMGYwMgYIKwYBBQUHMAKGJmh0dHA6Ly9sYWJz
LWNhLnN0cmF0aW8uY29tL2xhYnMtY2EuY3J0MDAGCCsGAQUFBzABhiRodHRwOi8v
b2NzcC5sYWJzLWNhLnN0cmF0aW8uY29tOjkwODEwHwYDVR0jBBgwFoAUCSk/hmbm
onQWufXiJO22FIKtdVIwDAYDVR0TAQH/BAIwADA3BgNVHR8EMDAuMCygKqAohiZo
dHRwOi8vbGFicy1jYS5zdHJhdGlvLmNvbS9sYWJzLWNhLmNybDAdBgNVHSUEFjAU
BggrBgEFBQcDAgYIKwYBBQUHAwEwDgYDVR0PAQH/BAQDAgWgMB0GA1UdDgQWBBRp
xwiMPzVCUWolhpvx1LSAjXFyjTAqBgNVHREEIzAhggdhZ2VudC0yghZhZ2VudC0y
LmtyYWtlbi5jbHVzdGVyMA0GCSqGSIb3DQEBCwUAA4ICAQCCJNGdhftLxy7wkeMv
vJ2BDsApEL7aDd/tEkFR7sJVxUcjLs6uiaEXI1MhbRBVXH2aMPAjrOdgTd0ALkAZ
Sq35SipECBrDDyBMWxQZd5vEHWdufmnExn1A2Rs6PY5tkkUGUzngSMilSuyaBfoC
U/iz4kCLTL4b/c5TFGBNRYjHH+BZRgSa12tRd7MgpZ0lu6uqdxawwsbg48/UXgxD
1mpU//qnHnLKhQX6Jd8ayMoqJ8+R7izDSLSxAeFQoDwcl03AleoSz9F5nGFY02xj
P9IHO6yoh0DioZOjVEpjzsu/elCHTk+j5XMeWB/XlAt9dNmdUsau5d3BOmrPooTa
qMcVQpBzCpsDD+++pSWbmhgS9JZz4WMiExC+T7StfvgxWA1UWMXfOjaGSJ8VZ2sg
OcNGQRz4EozF4/Bd8BNoryCl+PBoZD2lobPdNEfZZWoX7TSILbQ3da3aRwz8q8Wj
7Ow/ZgfHoeReSx4TOj44/w+noJVAwaqz6aCcm0Qd+XlSrt+O8fuu7rObuN4/J/Xt
fmy0lJxX4r+dO6CVRxqbGB6uOoNPiDgYZ9EYlxePXfPTaPcQIVWfhm3fIK2WSWGt
IHBEWbMr+loPxgZv9hRT4WPIwnzQTNXb7slzEpuEHGT0kAuN/xJw+L46BcKA2KK5
AJx9D0R4QHjmFwI8NGjEznDAQw==
-----END CERTIFICATE-----
-----BEGIN CERTIFICATE-----
MIIFOjCCAyKgAwIBAgIQdWSbQJ/CYk1/BERap1nTPTANBgkqhkiG9w0BAQsFADA4
MQswCQYDVQQGEwJFUzEQMA4GA1UECgwHU3RyYXRpbzEXMBUGA1UEAwwOU3RyYXRp
byBJbmMgQ0EwHhcNMTYxMDIxMTUxNjEyWhcNMjYxMDE5MTUxNjEyWjA2MQswCQYD
VQQGEwJFUzEQMA4GA1UECgwHU3RyYXRpbzEVMBMGA1UEAwwMTGFicyB0ZWFtIENB
MIICIjANBgkqhkiG9w0BAQEFAAOCAg8AMIICCgKCAgEAtMw5w9bxjXur+T3A/sFE
cDCKxvKWU1Um86puh36D3Zc55/aTpNzq8UqyEtTUbr9xuqpkriQWPZcS3CZEDW0w
nEXmZ6/ukQ059T9wv6P+YGEXMqaVHn3qPGwiZ8WbClVrGfDwTl+9sfqvfR6keJq8
rJkxE21ECW94ikI7Tk19s0Rz62xf+/FFRndQbTsech9Opi4TC2zMd9h9rPyRwfSm
VHMKPmqm+nnAoDjBlUalxjt+n7Vs269ZBqfusn25Em+BIMwU4z13csHIuZuB/mvm
qipxc2VHHrvhlCeoSgqWnNvmok4D8Ug+9sASAKYn1stdkSxCqwLLWb9PR/fUcqor
vz1S8KNc07c7IIt2ip5sXGWSJKIazak4CHiJGEQ11jO4NOFsXp+tDaQgT/21Aq45
zHJyf9ymT8c0ztwe9oQI1UYXHyopfyW1o9Ca5/MxQeXWcCPEFE1IMoA/e6vDWF09
liDOZl94lSwZ2ev+zGGDN+WU4ZojCbjdLCv/tbuSdyiTd4jV6dCShObyWMc6l+TA
fHvHFkxD29MDC165evoSXWMZtqriyt2h/9kWmqgblpz0oJ4kFPQ9RY5n34FHMSva
bkSTWkjcV8m6/4YDaRWYTo7a+ObJ9a6sk0J8pfYYcpwn4QoFS+12IA95ea51TWN1
bEoIFaVEqBDy5y3Qe7JSWNkCAwEAAaNCMEAwDwYDVR0TAQH/BAUwAwEB/zAOBgNV
HQ8BAf8EBAMCAQYwHQYDVR0OBBYEFAkpP4Zm5qJ0Frn14iTtthSCrXVSMA0GCSqG
SIb3DQEBCwUAA4ICAQA/Pnv9Lf/Ic/EeJYjFGZ84bICIZ/cFFNPcb4lWc7zJNOg2
690t748MwqDUQYvCL4f5Dh+rvssLxK/FlMGDiw4UrZGHdHS5u3bTTUrbwG1NHQKR
nthdz1xtx/TlBn4NvqVokcB7AkC5XVwpTvvVvcgpRp+ffYK3gd6arOb6oOOzRYDa
wFgPEZdZrbREh9p1k0NpbkUcmNiNMjQhV+DqVvGI+pYTOP4686Q4PvC7OGma5X3T
0MWwUJ3iMPdo4qAGJB8GV4XbyPapMd7vqFzsf18yAKmT9Q2afr1U1KCQ/zourY1u
qBeor5CzJzCDqLDxgXrBauVwB844Epa24x98RQGfZuIULZGPn0Sf8sF4L2bwmBBQ
M29yAWO4DLEZU0yqQTUHV7oJmNN+i0iE4wNSlC/Gz/wV3LCG+tseQkgvRziN8hwo
TGg6n9EvT2NdD0QpzJ2D7PQeJIytKEYzJKVRCZkn3Xcoy1SzIKiG0xDLME22rjFu
vWFyw1r/OnErIM7RL4GLZ3gAm00CRq4e2GarcEeLAq1d7rcSxV5/84pOIX9mH7PN
JTg5js6pOn9hrZWmmwRKYYVTPFqkAlTurrO0NjOT/kmDdHT0Xnaq0LRg0bKa79iD
JcylT5C08PAJX5S9esPXhNwS6rxMwk1ApmdE5USs/hn3geDAebJ0aRwIwnX5+g==
-----END CERTIFICATE-----
-----BEGIN CERTIFICATE-----
MIIFPDCCAySgAwIBAgIQdWSbQJ/CYk1/BERap1nTNjANBgkqhkiG9w0BAQsFADA4
MQswCQYDVQQGEwJFUzEQMA4GA1UECgwHU3RyYXRpbzEXMBUGA1UEAwwOU3RyYXRp
byBJbmMgQ0EwHhcNMTYwMjE5MTEzODI2WhcNMjYwMjE2MTEzODI2WjA4MQswCQYD
VQQGEwJFUzEQMA4GA1UECgwHU3RyYXRpbzEXMBUGA1UEAwwOU3RyYXRpbyBJbmMg
Q0EwggIiMA0GCSqGSIb3DQEBAQUAA4ICDwAwggIKAoICAQC2boA0hxlI9cDcSrt9
56lPnNuQ0ek/NnuWw6dsGXZeC1RHBR5m3/0jGnKRMpW2PpmTp7eG2ngOCbZMd5tG
hZHoposlCHSjRrJvhXWPRDP52WvtSgsckcJtKw1uoo3lqZGBPAHpvg3ExxcWY8Q/
b7H3Rc0zY2nM/whiayJPwO4+wE3gGiQwFrvsaekFjX/bNwBnZRiSAHm6iYeL0qfw
vSUwBcs0Wzh2yCKOuNqnuk+xFy3iaj5ADWGDxhm4Qf4q5UKJCriYZnWWSn0CDIHl
ZPc05sXERO52OCyzAG5Bm8qCGeCBtgpFQtHf72gbJFfSqJKs0VQ7U8N9ucI3NAEp
vt0NDXALF+4EoyV+0vCrq4U5f7geUSKPSEZWI2lpyz+NCZ95BrTFSHLDuNsTXJLn
mJjOYCymAm5luKA6DQw3HyNXIndgKV2e5BfhSWx3HP4J0DxO7kB2F1APUSijNZAe
2x6x+SO85CR6dT46pEvoGypD8EiRRoDHbQ8Vw1ulVh8nXoJzCs8v3exQUt1ZG7G1
Pcmp/S4xPF0Y6/HP0IIe2pxJ4uzOYaaARki3AI8pwHfD6OON6tRC0wjnPB4qYPta
nVJo4Nr/UWmq8vpgLKrI2kE3ceiPkNgb7/cXepyseTDBQidvCwV/ZyixmafwDgDi
02zN/FI4yS3aMtpyXtrTkKlLXwIDAQABo0IwQDAPBgNVHRMBAf8EBTADAQH/MA4G
A1UdDwEB/wQEAwIBBjAdBgNVHQ4EFgQU1T68/Oa44A7bgn6wxN1deQVukKQwDQYJ
KoZIhvcNAQELBQADggIBAEGTbgPUdRcWCgLclrbIOJ9wNC/T0LhmAuMyPtXJVfoj
aH1XlWWGZw9CTAD0/d/W1cE0QwLi7MI0IWV6Lb4VjaogXIga7ND5uLzZ5iJb7SK8
+gjK0d8hpGUKrwLzS6jUuL4vieM9DF7/VPi4EJm4EL35QfNpnb4Y17yOY1FZwZjt
wlPZWGrG0plRTi70/Mgic4a3KtC1I33RUUruF3nk+Fm+VEJJzmoOi01JwDwuM1hT
6lI4USNLp2vy4l1iJSdBSlwwNEthv1C/eHqC2XkH8Kr6kufW8s2Cnqu1tHJ/U+ns
/m5dDcrP22i/toDKVwOdquFdB4bg42PWyKeQi85UlHVSPwlTiB7gXZi97vtIDlIf
YZ6V3zy4fSUudaBXEm4IOY7IoRFB1zoqSj86KtufjOLAfqAcUFqYJGKEIfjbGist
agDKh5VRTtmgWnCSp252h27UHrYMWSv9/oi6H7m9dv5ZBuUgeYnxsgZYDgic4xA8
0POOWAiMwYdoIQwQghdGLRDuXT8krg8/ery42xmIvqW0xpJzROAVzWgtEUFFtFfM
nrFjf2b4o6Mw8A6AflbL1zeRuum/Uz+sFVVSUS1uzWrIRSTN6M2tRpu6EuRuNCJk
NXxqQ5v3iBCpoKsXEBqDeymnT4WEFqv+Rq2ZHbticZ+vXbu8039fau7bdmVS9Bjj
-----END CERTIFICATE-----
