Certificate:
    Data:
        Version: 3 (0x2)
        Serial Number:
            14:43:3d:6a:11:a6:76:af:5d:09:82:58:2d:92:46:ef
        Signature Algorithm: sha256WithRSAEncryption
        Issuer: C=ES, O=Stratio, CN=Labs team CA
        Validity
            Not Before: Mar 20 13:12:00 2020 GMT
            Not After : Mar 20 13:12:00 2021 GMT
        Subject: C=ES, O=Stratio, CN=agent-1
        Subject Public Key Info:
            Public Key Algorithm: rsaEncryption
                RSA Public-Key: (2048 bit)
                Modulus:
                    00:b9:39:66:2f:cc:45:e6:40:b0:df:e8:d6:50:6b:
                    fb:3e:1b:8f:d8:8d:c1:74:04:ab:c5:67:b9:03:f1:
                    0a:7b:86:5a:8e:1a:07:b6:f2:e6:4f:49:30:31:3e:
                    24:28:26:2a:85:c7:55:18:68:4b:49:da:0e:8d:95:
                    24:96:05:28:03:fb:6d:3a:ee:7a:5a:dd:90:d4:f6:
                    c7:de:3c:1e:72:59:c0:b3:f2:48:f7:b9:e7:59:d9:
                    e9:54:6f:ad:83:2b:e5:2c:99:6a:7b:b2:b5:7b:6a:
                    49:69:98:c5:e1:bd:58:80:4a:94:8e:ec:f1:1d:10:
                    cf:10:f7:f1:67:c8:dd:94:db:83:d3:20:09:55:42:
                    b2:d2:c1:e6:14:c5:f7:ec:ea:cc:c8:4c:fd:6d:7a:
                    6a:55:52:31:4c:5d:c5:b3:ff:2b:f2:d6:23:04:4b:
                    36:b2:6e:b7:f9:5a:8c:ac:86:36:9d:d4:48:5d:7a:
                    5c:84:d3:ea:9a:ea:0d:e9:6d:22:ff:b5:b1:9c:e3:
                    26:ff:a1:31:31:a1:ee:d3:50:61:db:2e:30:5f:b2:
                    3b:63:9e:59:7a:e2:17:f9:11:aa:be:97:4d:8d:06:
                    ce:37:0f:30:36:40:b6:c4:2c:fe:58:f4:25:90:44:
                    41:ae:04:29:b1:8b:51:18:86:8f:88:93:91:b7:bd:
                    eb:35
                Exponent: 65537 (0x10001)
        X509v3 extensions:
            Authority Information Access: 
                CA Issuers - URI:http://labs-ca.stratio.com/labs-ca.crt
                OCSP - URI:http://ocsp.labs-ca.stratio.com:9081

            X509v3 Authority Key Identifier: 
                keyid:09:29:3F:86:66:E6:A2:74:16:B9:F5:E2:24:ED:B6:14:82:AD:75:52

            X509v3 Basic Constraints: critical
                CA:FALSE
            X509v3 CRL Distribution Points: 

                Full Name:
                  URI:http://labs-ca.stratio.com/labs-ca.crl

            X509v3 Extended Key Usage: 
                TLS Web Client Authentication, TLS Web Server Authentication
            X509v3 Key Usage: critical
                Digital Signature, Key Encipherment
            X509v3 Subject Key Identifier: 
                B5:5C:EE:A3:65:62:92:92:16:93:E6:DD:E6:79:10:FB:E1:EE:BA:88
            X509v3 Subject Alternative Name: 
                DNS:agent-1, DNS:agent-1.kraken.cluster
    Signature Algorithm: sha256WithRSAEncryption
         a1:2b:68:85:db:fb:0a:66:d1:62:89:d8:d2:dc:b4:46:64:47:
         15:b3:82:d2:bd:10:ed:00:0e:3e:f0:5a:be:5a:16:78:97:8c:
         c9:f5:00:7c:b9:b1:33:4d:4e:2d:de:62:a4:ed:11:cd:1d:a4:
         71:14:14:fe:e5:b2:2c:01:a1:dd:fc:45:6a:df:5a:71:37:b9:
         ed:0a:44:65:31:38:5f:77:cd:ac:b6:7b:d9:dc:0d:b0:7b:71:
         d8:f9:50:49:59:e6:50:49:fc:61:a2:2c:ef:1e:a9:4f:56:ac:
         17:2a:cf:9a:43:32:bf:dd:b3:9d:97:ea:53:81:2b:27:c4:a5:
         13:62:b4:3b:1c:4c:89:6e:31:bd:17:11:a0:5b:e7:c1:8c:d7:
         71:1a:bd:41:64:9b:e7:a9:1b:c0:e8:4f:a1:e9:db:c3:3b:34:
         5c:9f:58:58:04:4d:93:ba:9f:48:e0:db:1d:ff:fb:9c:03:eb:
         5a:a4:bf:c1:17:ae:fd:1d:22:98:96:20:60:1b:62:19:45:c5:
         8e:2b:1f:59:cc:f9:18:fa:1a:3d:f2:2a:35:f3:9a:c7:6a:9f:
         74:d8:6d:06:fb:06:3f:6b:ad:4f:95:0d:46:c5:a8:73:f8:67:
         ac:47:c6:82:2a:9e:60:f8:6d:36:d4:58:ff:27:f0:a9:0e:2c:
         57:9b:a8:ce:31:65:8a:20:a6:5c:2a:06:33:1e:d9:16:ce:d7:
         09:6e:b2:da:f5:13:f8:e7:77:b4:5a:a1:89:cf:ef:a8:e6:3a:
         71:e4:26:23:6b:94:e5:8b:4d:37:df:60:2a:e3:31:70:37:39:
         75:38:98:88:2c:de:97:99:14:e8:ee:a3:2d:79:80:dc:cc:e3:
         6d:b0:f4:7b:b4:c4:dc:a0:63:af:79:a8:a4:b3:bd:b6:31:22:
         40:5f:4a:65:1d:5d:7a:a5:61:85:6f:17:ad:fb:59:10:d1:0b:
         b5:11:be:7f:68:92:cf:d4:a4:1b:87:04:0d:69:e4:3c:c0:01:
         c6:c4:8f:a5:bf:38:9d:96:44:c5:ee:4c:45:87:58:30:58:4f:
         7b:77:fe:b7:06:88:d1:f6:69:bf:35:4b:67:dd:7e:0a:d2:ab:
         2d:3d:be:78:17:a7:a6:1f:29:8f:02:36:d9:33:8d:ee:2f:43:
         54:91:a6:63:fa:fa:14:6b:cb:65:79:41:5a:8f:d1:37:b4:f2:
         a1:00:fd:75:e6:60:d9:6b:64:a2:a2:3f:ce:f6:47:51:bb:a6:
         fa:76:eb:e0:d9:b8:b4:19:24:69:d9:6e:5a:dc:cf:bb:d0:2f:
         14:d7:9f:39:c0:3b:8b:12:5a:ff:13:ae:ea:f3:f9:a9:57:fe:
         0f:a6:b2:1b:d6:bc:ff:97
-----BEGIN CERTIFICATE-----
MIIFTzCCAzegAwIBAgIQFEM9ahGmdq9dCYJYLZJG7zANBgkqhkiG9w0BAQsFADA2
MQswCQYDVQQGEwJFUzEQMA4GA1UECgwHU3RyYXRpbzEVMBMGA1UEAwwMTGFicyB0
ZWFtIENBMB4XDTIwMDMyMDEzMTIwMFoXDTIxMDMyMDEzMTIwMFowMTELMAkGA1UE
BhMCRVMxEDAOBgNVBAoMB1N0cmF0aW8xEDAOBgNVBAMMB2FnZW50LTEwggEiMA0G
CSqGSIb3DQEBAQUAA4IBDwAwggEKAoIBAQC5OWYvzEXmQLDf6NZQa/s+G4/YjcF0
BKvFZ7kD8Qp7hlqOGge28uZPSTAxPiQoJiqFx1UYaEtJ2g6NlSSWBSgD+2067npa
3ZDU9sfePB5yWcCz8kj3uedZ2elUb62DK+UsmWp7srV7aklpmMXhvViASpSO7PEd
EM8Q9/FnyN2U24PTIAlVQrLSweYUxffs6szITP1tempVUjFMXcWz/yvy1iMESzay
brf5Woyshjad1EhdelyE0+qa6g3pbSL/tbGc4yb/oTExoe7TUGHbLjBfsjtjnll6
4hf5Eaq+l02NBs43DzA2QLbELP5Y9CWQREGuBCmxi1EYho+Ik5G3ves1AgMBAAGj
ggFcMIIBWDB0BggrBgEFBQcBAQRoMGYwMgYIKwYBBQUHMAKGJmh0dHA6Ly9sYWJz
LWNhLnN0cmF0aW8uY29tL2xhYnMtY2EuY3J0MDAGCCsGAQUFBzABhiRodHRwOi8v
b2NzcC5sYWJzLWNhLnN0cmF0aW8uY29tOjkwODEwHwYDVR0jBBgwFoAUCSk/hmbm
onQWufXiJO22FIKtdVIwDAYDVR0TAQH/BAIwADA3BgNVHR8EMDAuMCygKqAohiZo
dHRwOi8vbGFicy1jYS5zdHJhdGlvLmNvbS9sYWJzLWNhLmNybDAdBgNVHSUEFjAU
BggrBgEFBQcDAgYIKwYBBQUHAwEwDgYDVR0PAQH/BAQDAgWgMB0GA1UdDgQWBBS1
XO6jZWKSkhaT5t3meRD74e66iDAqBgNVHREEIzAhggdhZ2VudC0xghZhZ2VudC0x
LmtyYWtlbi5jbHVzdGVyMA0GCSqGSIb3DQEBCwUAA4ICAQChK2iF2/sKZtFiidjS
3LRGZEcVs4LSvRDtAA4+8Fq+WhZ4l4zJ9QB8ubEzTU4t3mKk7RHNHaRxFBT+5bIs
AaHd/EVq31pxN7ntCkRlMThfd82stnvZ3A2we3HY+VBJWeZQSfxhoizvHqlPVqwX
Ks+aQzK/3bOdl+pTgSsnxKUTYrQ7HEyJbjG9FxGgW+fBjNdxGr1BZJvnqRvA6E+h
6dvDOzRcn1hYBE2Tup9I4Nsd//ucA+tapL/BF679HSKYliBgG2IZRcWOKx9ZzPkY
+ho98io185rHap902G0G+wY/a61PlQ1Gxahz+GesR8aCKp5g+G021Fj/J/CpDixX
m6jOMWWKIKZcKgYzHtkWztcJbrLa9RP453e0WqGJz++o5jpx5CYja5Tli00332Aq
4zFwNzl1OJiILN6XmRTo7qMteYDczONtsPR7tMTcoGOveaiks722MSJAX0plHV16
pWGFbxet+1kQ0Qu1Eb5/aJLP1KQbhwQNaeQ8wAHGxI+lvzidlkTF7kxFh1gwWE97
d/63BojR9mm/NUtn3X4K0qstPb54F6emHymPAjbZM43uL0NUkaZj+voUa8tleUFa
j9E3tPKhAP115mDZa2Sioj/O9kdRu6b6duvg2bi0GSRp2W5a3M+70C8U1585wDuL
Elr/E67q8/mpV/4PprIb1rz/lw==
-----END CERTIFICATE-----
-----BEGIN CERTIFICATE-----
MIIFOjCCAyKgAwIBAgIQdWSbQJ/CYk1/BERap1nTPTANBgkqhkiG9w0BAQsFADA4
MQswCQYDVQQGEwJFUzEQMA4GA1UECgwHU3RyYXRpbzEXMBUGA1UEAwwOU3RyYXRp
byBJbmMgQ0EwHhcNMTYxMDIxMTUxNjEyWhcNMjYxMDE5MTUxNjEyWjA2MQswCQYD
VQQGEwJFUzEQMA4GA1UECgwHU3RyYXRpbzEVMBMGA1UEAwwMTGFicyB0ZWFtIENB
MIICIjANBgkqhkiG9w0BAQEFAAOCAg8AMIICCgKCAgEAtMw5w9bxjXur+T3A/sFE
cDCKxvKWU1Um86puh36D3Zc55/aTpNzq8UqyEtTUbr9xuqpkriQWPZcS3CZEDW0w
nEXmZ6/ukQ059T9wv6P+YGEXMqaVHn3qPGwiZ8WbClVrGfDwTl+9sfqvfR6keJq8
rJkxE21ECW94ikI7Tk19s0Rz62xf+/FFRndQbTsech9Opi4TC2zMd9h9rPyRwfSm
VHMKPmqm+nnAoDjBlUalxjt+n7Vs269ZBqfusn25Em+BIMwU4z13csHIuZuB/mvm
qipxc2VHHrvhlCeoSgqWnNvmok4D8Ug+9sASAKYn1stdkSxCqwLLWb9PR/fUcqor
vz1S8KNc07c7IIt2ip5sXGWSJKIazak4CHiJGEQ11jO4NOFsXp+tDaQgT/21Aq45
zHJyf9ymT8c0ztwe9oQI1UYXHyopfyW1o9Ca5/MxQeXWcCPEFE1IMoA/e6vDWF09
liDOZl94lSwZ2ev+zGGDN+WU4ZojCbjdLCv/tbuSdyiTd4jV6dCShObyWMc6l+TA
fHvHFkxD29MDC165evoSXWMZtqriyt2h/9kWmqgblpz0oJ4kFPQ9RY5n34FHMSva
bkSTWkjcV8m6/4YDaRWYTo7a+ObJ9a6sk0J8pfYYcpwn4QoFS+12IA95ea51TWN1
bEoIFaVEqBDy5y3Qe7JSWNkCAwEAAaNCMEAwDwYDVR0TAQH/BAUwAwEB/zAOBgNV
HQ8BAf8EBAMCAQYwHQYDVR0OBBYEFAkpP4Zm5qJ0Frn14iTtthSCrXVSMA0GCSqG
SIb3DQEBCwUAA4ICAQA/Pnv9Lf/Ic/EeJYjFGZ84bICIZ/cFFNPcb4lWc7zJNOg2
690t748MwqDUQYvCL4f5Dh+rvssLxK/FlMGDiw4UrZGHdHS5u3bTTUrbwG1NHQKR
nthdz1xtx/TlBn4NvqVokcB7AkC5XVwpTvvVvcgpRp+ffYK3gd6arOb6oOOzRYDa
wFgPEZdZrbREh9p1k0NpbkUcmNiNMjQhV+DqVvGI+pYTOP4686Q4PvC7OGma5X3T
0MWwUJ3iMPdo4qAGJB8GV4XbyPapMd7vqFzsf18yAKmT9Q2afr1U1KCQ/zourY1u
qBeor5CzJzCDqLDxgXrBauVwB844Epa24x98RQGfZuIULZGPn0Sf8sF4L2bwmBBQ
M29yAWO4DLEZU0yqQTUHV7oJmNN+i0iE4wNSlC/Gz/wV3LCG+tseQkgvRziN8hwo
TGg6n9EvT2NdD0QpzJ2D7PQeJIytKEYzJKVRCZkn3Xcoy1SzIKiG0xDLME22rjFu
vWFyw1r/OnErIM7RL4GLZ3gAm00CRq4e2GarcEeLAq1d7rcSxV5/84pOIX9mH7PN
JTg5js6pOn9hrZWmmwRKYYVTPFqkAlTurrO0NjOT/kmDdHT0Xnaq0LRg0bKa79iD
JcylT5C08PAJX5S9esPXhNwS6rxMwk1ApmdE5USs/hn3geDAebJ0aRwIwnX5+g==
-----END CERTIFICATE-----
-----BEGIN CERTIFICATE-----
MIIFPDCCAySgAwIBAgIQdWSbQJ/CYk1/BERap1nTNjANBgkqhkiG9w0BAQsFADA4
MQswCQYDVQQGEwJFUzEQMA4GA1UECgwHU3RyYXRpbzEXMBUGA1UEAwwOU3RyYXRp
byBJbmMgQ0EwHhcNMTYwMjE5MTEzODI2WhcNMjYwMjE2MTEzODI2WjA4MQswCQYD
VQQGEwJFUzEQMA4GA1UECgwHU3RyYXRpbzEXMBUGA1UEAwwOU3RyYXRpbyBJbmMg
Q0EwggIiMA0GCSqGSIb3DQEBAQUAA4ICDwAwggIKAoICAQC2boA0hxlI9cDcSrt9
56lPnNuQ0ek/NnuWw6dsGXZeC1RHBR5m3/0jGnKRMpW2PpmTp7eG2ngOCbZMd5tG
hZHoposlCHSjRrJvhXWPRDP52WvtSgsckcJtKw1uoo3lqZGBPAHpvg3ExxcWY8Q/
b7H3Rc0zY2nM/whiayJPwO4+wE3gGiQwFrvsaekFjX/bNwBnZRiSAHm6iYeL0qfw
vSUwBcs0Wzh2yCKOuNqnuk+xFy3iaj5ADWGDxhm4Qf4q5UKJCriYZnWWSn0CDIHl
ZPc05sXERO52OCyzAG5Bm8qCGeCBtgpFQtHf72gbJFfSqJKs0VQ7U8N9ucI3NAEp
vt0NDXALF+4EoyV+0vCrq4U5f7geUSKPSEZWI2lpyz+NCZ95BrTFSHLDuNsTXJLn
mJjOYCymAm5luKA6DQw3HyNXIndgKV2e5BfhSWx3HP4J0DxO7kB2F1APUSijNZAe
2x6x+SO85CR6dT46pEvoGypD8EiRRoDHbQ8Vw1ulVh8nXoJzCs8v3exQUt1ZG7G1
Pcmp/S4xPF0Y6/HP0IIe2pxJ4uzOYaaARki3AI8pwHfD6OON6tRC0wjnPB4qYPta
nVJo4Nr/UWmq8vpgLKrI2kE3ceiPkNgb7/cXepyseTDBQidvCwV/ZyixmafwDgDi
02zN/FI4yS3aMtpyXtrTkKlLXwIDAQABo0IwQDAPBgNVHRMBAf8EBTADAQH/MA4G
A1UdDwEB/wQEAwIBBjAdBgNVHQ4EFgQU1T68/Oa44A7bgn6wxN1deQVukKQwDQYJ
KoZIhvcNAQELBQADggIBAEGTbgPUdRcWCgLclrbIOJ9wNC/T0LhmAuMyPtXJVfoj
aH1XlWWGZw9CTAD0/d/W1cE0QwLi7MI0IWV6Lb4VjaogXIga7ND5uLzZ5iJb7SK8
+gjK0d8hpGUKrwLzS6jUuL4vieM9DF7/VPi4EJm4EL35QfNpnb4Y17yOY1FZwZjt
wlPZWGrG0plRTi70/Mgic4a3KtC1I33RUUruF3nk+Fm+VEJJzmoOi01JwDwuM1hT
6lI4USNLp2vy4l1iJSdBSlwwNEthv1C/eHqC2XkH8Kr6kufW8s2Cnqu1tHJ/U+ns
/m5dDcrP22i/toDKVwOdquFdB4bg42PWyKeQi85UlHVSPwlTiB7gXZi97vtIDlIf
YZ6V3zy4fSUudaBXEm4IOY7IoRFB1zoqSj86KtufjOLAfqAcUFqYJGKEIfjbGist
agDKh5VRTtmgWnCSp252h27UHrYMWSv9/oi6H7m9dv5ZBuUgeYnxsgZYDgic4xA8
0POOWAiMwYdoIQwQghdGLRDuXT8krg8/ery42xmIvqW0xpJzROAVzWgtEUFFtFfM
nrFjf2b4o6Mw8A6AflbL1zeRuum/Uz+sFVVSUS1uzWrIRSTN6M2tRpu6EuRuNCJk
NXxqQ5v3iBCpoKsXEBqDeymnT4WEFqv+Rq2ZHbticZ+vXbu8039fau7bdmVS9Bjj
-----END CERTIFICATE-----
