Certificate:
    Data:
        Version: 3 (0x2)
        Serial Number:
            14:43:3d:6a:11:a6:76:af:5d:09:82:58:2d:92:46:f0
        Signature Algorithm: sha256WithRSAEncryption
        Issuer: C=ES, O=Stratio, CN=Labs team CA
        Validity
            Not Before: Mar 20 13:12:01 2020 GMT
            Not After : Mar 20 13:12:01 2021 GMT
        Subject: C=ES, O=Stratio, CN=agent-2
        Subject Public Key Info:
            Public Key Algorithm: rsaEncryption
                RSA Public-Key: (2048 bit)
                Modulus:
                    00:a5:2c:dd:ae:77:0e:97:57:d1:90:0c:fc:40:58:
                    08:81:10:a8:60:80:92:ff:b8:5a:d9:8f:a7:fa:4f:
                    47:6f:6e:0d:c3:d1:ac:d7:25:8d:fe:57:ce:c6:58:
                    d8:77:d8:65:d0:a6:04:1a:2f:92:16:6b:5f:d9:29:
                    d3:e7:ef:65:b2:bc:5c:1b:58:74:e3:be:b8:18:9d:
                    d4:a9:dd:26:c2:56:93:fd:a1:6c:95:34:6b:59:d1:
                    72:54:e2:cb:af:91:63:e7:0f:99:30:94:58:9f:3e:
                    2e:5e:9f:81:b0:4a:c0:a9:b8:aa:46:05:2a:32:41:
                    ae:2c:7f:58:cb:84:42:da:60:14:6f:a4:96:2e:3a:
                    75:41:bc:f9:f1:6f:e0:e7:8f:78:1a:04:a6:a3:ed:
                    48:cf:fe:93:d6:95:c5:f7:e0:31:fb:2d:35:95:8f:
                    39:c1:55:e9:a0:a7:99:e8:43:9c:5d:ff:e9:11:36:
                    d6:90:bd:f0:25:a7:39:e5:a6:6f:91:9c:b1:d7:bc:
                    5a:6e:13:b3:03:94:72:4c:8d:95:db:30:82:9d:b0:
                    62:30:7d:58:5a:e8:43:82:9e:e6:a1:3c:18:d6:2d:
                    99:07:45:49:43:a3:32:04:6a:fb:33:44:26:eb:ec:
                    69:c6:1d:2e:aa:68:db:82:e7:75:4f:40:b2:d8:90:
                    3a:7d
                Exponent: 65537 (0x10001)
        X509v3 extensions:
            Authority Information Access: 
                CA Issuers - URI:http://labs-ca.stratio.com/labs-ca.crt
                OCSP - URI:http://ocsp.labs-ca.stratio.com:9081

            X509v3 Authority Key Identifier: 
                keyid:09:29:3F:86:66:E6:A2:74:16:B9:F5:E2:24:ED:B6:14:82:AD:75:52

            X509v3 Basic Constraints: critical
                CA:FALSE
            X509v3 CRL Distribution Points: 

                Full Name:
                  URI:http://labs-ca.stratio.com/labs-ca.crl

            X509v3 Extended Key Usage: 
                TLS Web Client Authentication, TLS Web Server Authentication
            X509v3 Key Usage: critical
                Digital Signature, Key Encipherment
            X509v3 Subject Key Identifier: 
                B7:C4:86:22:0C:D4:01:C7:B2:AB:EA:49:A8:1C:C8:CA:87:87:40:02
            X509v3 Subject Alternative Name: 
                DNS:agent-2, DNS:agent-2.kraken.cluster
    Signature Algorithm: sha256WithRSAEncryption
         2f:89:59:ad:6e:cd:42:c6:44:ed:bb:24:89:d4:90:61:09:34:
         2d:ed:9e:f1:fd:4b:90:09:cb:1a:23:74:10:9e:f0:d8:c8:51:
         da:ee:91:70:f6:36:84:77:ea:07:85:c5:b5:59:3e:0a:bd:66:
         fe:ff:c7:61:5d:86:6f:47:bf:b8:4c:1a:61:af:92:ae:57:bd:
         37:97:44:74:8e:c0:74:f0:04:b4:ee:88:cc:55:f3:aa:a5:9e:
         49:0e:3e:2c:ea:bc:8f:85:15:2c:6d:60:24:88:32:7d:d3:98:
         69:56:44:ca:05:f6:e9:85:a2:28:4c:1b:52:c2:91:f1:c7:c9:
         7e:34:df:fe:31:4c:e1:32:08:3a:fb:ea:e6:d3:17:26:63:cb:
         16:16:0b:09:df:0c:ac:b4:48:dc:18:ec:ef:e5:d2:17:a7:fa:
         2e:2c:93:6a:9e:2b:7d:88:0d:df:3b:26:fc:1f:88:6f:62:1b:
         f0:c4:66:3a:e7:0e:01:57:2f:bc:50:89:e4:1d:66:ee:c4:fe:
         b2:4f:b1:d2:50:89:e3:a0:72:13:cf:5f:30:24:e9:97:8e:2a:
         30:39:e7:3e:09:d0:b6:e9:a6:25:4d:19:8c:84:81:16:40:dc:
         a7:4b:e7:6e:fb:03:3a:b7:c3:00:b1:2a:14:91:80:5c:fb:cb:
         07:3a:27:5b:58:e6:67:4a:d9:e2:29:95:67:18:8a:74:ed:c0:
         eb:72:0a:f3:8c:11:bc:b3:db:71:96:c5:2f:d0:6e:ea:c8:20:
         50:63:31:e6:69:6c:8c:ec:6a:85:8b:cd:1a:ca:2c:2f:2a:cc:
         58:3d:34:db:de:03:ba:cb:fe:cc:6d:f4:75:28:5c:65:c7:f0:
         77:7c:c2:76:b7:dd:44:52:38:f4:42:66:96:d0:35:71:a3:9a:
         46:8e:1b:c4:77:cb:be:ff:44:8d:3a:cc:fe:71:4a:eb:60:6d:
         38:6f:ae:1c:8b:07:5a:ab:06:c1:fe:90:ca:d4:5b:19:f9:fe:
         df:26:34:21:ee:19:81:03:fb:2c:a3:87:52:42:5c:ab:bc:89:
         4d:5c:0f:3f:61:aa:19:78:2a:71:2c:47:f0:54:18:5c:9e:f3:
         66:10:da:18:e9:6f:f4:49:fc:15:0b:d6:7d:96:c0:2b:c6:86:
         ca:d9:20:a0:dd:79:8e:cd:e6:ce:96:de:33:33:20:54:09:94:
         b2:7f:49:2d:d2:ca:e5:98:e1:ba:05:9e:85:04:04:ce:7c:35:
         1c:3e:7b:87:61:eb:a9:86:81:e9:a0:26:5a:b2:8b:c4:da:04:
         0d:4d:2e:f9:3f:99:f1:18:2d:41:3f:33:c2:59:c2:94:84:db:
         da:49:85:4e:ce:e9:62:07
-----BEGIN CERTIFICATE-----
MIIFTzCCAzegAwIBAgIQFEM9ahGmdq9dCYJYLZJG8DANBgkqhkiG9w0BAQsFADA2
MQswCQYDVQQGEwJFUzEQMA4GA1UECgwHU3RyYXRpbzEVMBMGA1UEAwwMTGFicyB0
ZWFtIENBMB4XDTIwMDMyMDEzMTIwMVoXDTIxMDMyMDEzMTIwMVowMTELMAkGA1UE
BhMCRVMxEDAOBgNVBAoMB1N0cmF0aW8xEDAOBgNVBAMMB2FnZW50LTIwggEiMA0G
CSqGSIb3DQEBAQUAA4IBDwAwggEKAoIBAQClLN2udw6XV9GQDPxAWAiBEKhggJL/
uFrZj6f6T0dvbg3D0azXJY3+V87GWNh32GXQpgQaL5IWa1/ZKdPn72WyvFwbWHTj
vrgYndSp3SbCVpP9oWyVNGtZ0XJU4suvkWPnD5kwlFifPi5en4GwSsCpuKpGBSoy
Qa4sf1jLhELaYBRvpJYuOnVBvPnxb+Dnj3gaBKaj7UjP/pPWlcX34DH7LTWVjznB
Vemgp5noQ5xd/+kRNtaQvfAlpznlpm+RnLHXvFpuE7MDlHJMjZXbMIKdsGIwfVha
6EOCnuahPBjWLZkHRUlDozIEavszRCbr7GnGHS6qaNuC53VPQLLYkDp9AgMBAAGj
ggFcMIIBWDB0BggrBgEFBQcBAQRoMGYwMgYIKwYBBQUHMAKGJmh0dHA6Ly9sYWJz
LWNhLnN0cmF0aW8uY29tL2xhYnMtY2EuY3J0MDAGCCsGAQUFBzABhiRodHRwOi8v
b2NzcC5sYWJzLWNhLnN0cmF0aW8uY29tOjkwODEwHwYDVR0jBBgwFoAUCSk/hmbm
onQWufXiJO22FIKtdVIwDAYDVR0TAQH/BAIwADA3BgNVHR8EMDAuMCygKqAohiZo
dHRwOi8vbGFicy1jYS5zdHJhdGlvLmNvbS9sYWJzLWNhLmNybDAdBgNVHSUEFjAU
BggrBgEFBQcDAgYIKwYBBQUHAwEwDgYDVR0PAQH/BAQDAgWgMB0GA1UdDgQWBBS3
xIYiDNQBx7Kr6kmoHMjKh4dAAjAqBgNVHREEIzAhggdhZ2VudC0yghZhZ2VudC0y
LmtyYWtlbi5jbHVzdGVyMA0GCSqGSIb3DQEBCwUAA4ICAQAviVmtbs1CxkTtuySJ
1JBhCTQt7Z7x/UuQCcsaI3QQnvDYyFHa7pFw9jaEd+oHhcW1WT4KvWb+/8dhXYZv
R7+4TBphr5KuV703l0R0jsB08AS07ojMVfOqpZ5JDj4s6ryPhRUsbWAkiDJ905hp
VkTKBfbphaIoTBtSwpHxx8l+NN/+MUzhMgg6++rm0xcmY8sWFgsJ3wystEjcGOzv
5dIXp/ouLJNqnit9iA3fOyb8H4hvYhvwxGY65w4BVy+8UInkHWbuxP6yT7HSUInj
oHITz18wJOmXjiowOec+CdC26aYlTRmMhIEWQNynS+du+wM6t8MAsSoUkYBc+8sH
OidbWOZnStniKZVnGIp07cDrcgrzjBG8s9txlsUv0G7qyCBQYzHmaWyM7GqFi80a
yiwvKsxYPTTb3gO6y/7MbfR1KFxlx/B3fMJ2t91EUjj0QmaW0DVxo5pGjhvEd8u+
/0SNOsz+cUrrYG04b64ciwdaqwbB/pDK1FsZ+f7fJjQh7hmBA/sso4dSQlyrvIlN
XA8/YaoZeCpxLEfwVBhcnvNmENoY6W/0SfwVC9Z9lsArxobK2SCg3XmOzebOlt4z
MyBUCZSyf0kt0srlmOG6BZ6FBATOfDUcPnuHYeuphoHpoCZasovE2gQNTS75P5nx
GC1BPzPCWcKUhNvaSYVOzuliBw==
-----END CERTIFICATE-----
-----BEGIN CERTIFICATE-----
MIIFOjCCAyKgAwIBAgIQdWSbQJ/CYk1/BERap1nTPTANBgkqhkiG9w0BAQsFADA4
MQswCQYDVQQGEwJFUzEQMA4GA1UECgwHU3RyYXRpbzEXMBUGA1UEAwwOU3RyYXRp
byBJbmMgQ0EwHhcNMTYxMDIxMTUxNjEyWhcNMjYxMDE5MTUxNjEyWjA2MQswCQYD
VQQGEwJFUzEQMA4GA1UECgwHU3RyYXRpbzEVMBMGA1UEAwwMTGFicyB0ZWFtIENB
MIICIjANBgkqhkiG9w0BAQEFAAOCAg8AMIICCgKCAgEAtMw5w9bxjXur+T3A/sFE
cDCKxvKWU1Um86puh36D3Zc55/aTpNzq8UqyEtTUbr9xuqpkriQWPZcS3CZEDW0w
nEXmZ6/ukQ059T9wv6P+YGEXMqaVHn3qPGwiZ8WbClVrGfDwTl+9sfqvfR6keJq8
rJkxE21ECW94ikI7Tk19s0Rz62xf+/FFRndQbTsech9Opi4TC2zMd9h9rPyRwfSm
VHMKPmqm+nnAoDjBlUalxjt+n7Vs269ZBqfusn25Em+BIMwU4z13csHIuZuB/mvm
qipxc2VHHrvhlCeoSgqWnNvmok4D8Ug+9sASAKYn1stdkSxCqwLLWb9PR/fUcqor
vz1S8KNc07c7IIt2ip5sXGWSJKIazak4CHiJGEQ11jO4NOFsXp+tDaQgT/21Aq45
zHJyf9ymT8c0ztwe9oQI1UYXHyopfyW1o9Ca5/MxQeXWcCPEFE1IMoA/e6vDWF09
liDOZl94lSwZ2ev+zGGDN+WU4ZojCbjdLCv/tbuSdyiTd4jV6dCShObyWMc6l+TA
fHvHFkxD29MDC165evoSXWMZtqriyt2h/9kWmqgblpz0oJ4kFPQ9RY5n34FHMSva
bkSTWkjcV8m6/4YDaRWYTo7a+ObJ9a6sk0J8pfYYcpwn4QoFS+12IA95ea51TWN1
bEoIFaVEqBDy5y3Qe7JSWNkCAwEAAaNCMEAwDwYDVR0TAQH/BAUwAwEB/zAOBgNV
HQ8BAf8EBAMCAQYwHQYDVR0OBBYEFAkpP4Zm5qJ0Frn14iTtthSCrXVSMA0GCSqG
SIb3DQEBCwUAA4ICAQA/Pnv9Lf/Ic/EeJYjFGZ84bICIZ/cFFNPcb4lWc7zJNOg2
690t748MwqDUQYvCL4f5Dh+rvssLxK/FlMGDiw4UrZGHdHS5u3bTTUrbwG1NHQKR
nthdz1xtx/TlBn4NvqVokcB7AkC5XVwpTvvVvcgpRp+ffYK3gd6arOb6oOOzRYDa
wFgPEZdZrbREh9p1k0NpbkUcmNiNMjQhV+DqVvGI+pYTOP4686Q4PvC7OGma5X3T
0MWwUJ3iMPdo4qAGJB8GV4XbyPapMd7vqFzsf18yAKmT9Q2afr1U1KCQ/zourY1u
qBeor5CzJzCDqLDxgXrBauVwB844Epa24x98RQGfZuIULZGPn0Sf8sF4L2bwmBBQ
M29yAWO4DLEZU0yqQTUHV7oJmNN+i0iE4wNSlC/Gz/wV3LCG+tseQkgvRziN8hwo
TGg6n9EvT2NdD0QpzJ2D7PQeJIytKEYzJKVRCZkn3Xcoy1SzIKiG0xDLME22rjFu
vWFyw1r/OnErIM7RL4GLZ3gAm00CRq4e2GarcEeLAq1d7rcSxV5/84pOIX9mH7PN
JTg5js6pOn9hrZWmmwRKYYVTPFqkAlTurrO0NjOT/kmDdHT0Xnaq0LRg0bKa79iD
JcylT5C08PAJX5S9esPXhNwS6rxMwk1ApmdE5USs/hn3geDAebJ0aRwIwnX5+g==
-----END CERTIFICATE-----
-----BEGIN CERTIFICATE-----
MIIFPDCCAySgAwIBAgIQdWSbQJ/CYk1/BERap1nTNjANBgkqhkiG9w0BAQsFADA4
MQswCQYDVQQGEwJFUzEQMA4GA1UECgwHU3RyYXRpbzEXMBUGA1UEAwwOU3RyYXRp
byBJbmMgQ0EwHhcNMTYwMjE5MTEzODI2WhcNMjYwMjE2MTEzODI2WjA4MQswCQYD
VQQGEwJFUzEQMA4GA1UECgwHU3RyYXRpbzEXMBUGA1UEAwwOU3RyYXRpbyBJbmMg
Q0EwggIiMA0GCSqGSIb3DQEBAQUAA4ICDwAwggIKAoICAQC2boA0hxlI9cDcSrt9
56lPnNuQ0ek/NnuWw6dsGXZeC1RHBR5m3/0jGnKRMpW2PpmTp7eG2ngOCbZMd5tG
hZHoposlCHSjRrJvhXWPRDP52WvtSgsckcJtKw1uoo3lqZGBPAHpvg3ExxcWY8Q/
b7H3Rc0zY2nM/whiayJPwO4+wE3gGiQwFrvsaekFjX/bNwBnZRiSAHm6iYeL0qfw
vSUwBcs0Wzh2yCKOuNqnuk+xFy3iaj5ADWGDxhm4Qf4q5UKJCriYZnWWSn0CDIHl
ZPc05sXERO52OCyzAG5Bm8qCGeCBtgpFQtHf72gbJFfSqJKs0VQ7U8N9ucI3NAEp
vt0NDXALF+4EoyV+0vCrq4U5f7geUSKPSEZWI2lpyz+NCZ95BrTFSHLDuNsTXJLn
mJjOYCymAm5luKA6DQw3HyNXIndgKV2e5BfhSWx3HP4J0DxO7kB2F1APUSijNZAe
2x6x+SO85CR6dT46pEvoGypD8EiRRoDHbQ8Vw1ulVh8nXoJzCs8v3exQUt1ZG7G1
Pcmp/S4xPF0Y6/HP0IIe2pxJ4uzOYaaARki3AI8pwHfD6OON6tRC0wjnPB4qYPta
nVJo4Nr/UWmq8vpgLKrI2kE3ceiPkNgb7/cXepyseTDBQidvCwV/ZyixmafwDgDi
02zN/FI4yS3aMtpyXtrTkKlLXwIDAQABo0IwQDAPBgNVHRMBAf8EBTADAQH/MA4G
A1UdDwEB/wQEAwIBBjAdBgNVHQ4EFgQU1T68/Oa44A7bgn6wxN1deQVukKQwDQYJ
KoZIhvcNAQELBQADggIBAEGTbgPUdRcWCgLclrbIOJ9wNC/T0LhmAuMyPtXJVfoj
aH1XlWWGZw9CTAD0/d/W1cE0QwLi7MI0IWV6Lb4VjaogXIga7ND5uLzZ5iJb7SK8
+gjK0d8hpGUKrwLzS6jUuL4vieM9DF7/VPi4EJm4EL35QfNpnb4Y17yOY1FZwZjt
wlPZWGrG0plRTi70/Mgic4a3KtC1I33RUUruF3nk+Fm+VEJJzmoOi01JwDwuM1hT
6lI4USNLp2vy4l1iJSdBSlwwNEthv1C/eHqC2XkH8Kr6kufW8s2Cnqu1tHJ/U+ns
/m5dDcrP22i/toDKVwOdquFdB4bg42PWyKeQi85UlHVSPwlTiB7gXZi97vtIDlIf
YZ6V3zy4fSUudaBXEm4IOY7IoRFB1zoqSj86KtufjOLAfqAcUFqYJGKEIfjbGist
agDKh5VRTtmgWnCSp252h27UHrYMWSv9/oi6H7m9dv5ZBuUgeYnxsgZYDgic4xA8
0POOWAiMwYdoIQwQghdGLRDuXT8krg8/ery42xmIvqW0xpJzROAVzWgtEUFFtFfM
nrFjf2b4o6Mw8A6AflbL1zeRuum/Uz+sFVVSUS1uzWrIRSTN6M2tRpu6EuRuNCJk
NXxqQ5v3iBCpoKsXEBqDeymnT4WEFqv+Rq2ZHbticZ+vXbu8039fau7bdmVS9Bjj
-----END CERTIFICATE-----
