Certificate:
    Data:
        Version: 3 (0x2)
        Serial Number:
            14:43:3d:6a:11:a6:76:af:5d:09:82:58:2d:92:46:f3
        Signature Algorithm: sha256WithRSAEncryption
        Issuer: C=ES, O=Stratio, CN=Labs team CA
        Validity
            Not Before: Mar 20 13:12:03 2020 GMT
            Not After : Mar 20 13:12:03 2021 GMT
        Subject: C=ES, O=Stratio, CN=herd
        Subject Public Key Info:
            Public Key Algorithm: rsaEncryption
                RSA Public-Key: (2048 bit)
                Modulus:
                    00:d2:c6:06:83:66:c6:78:94:36:37:e9:12:0e:f0:
                    2a:c9:82:14:b4:bb:5a:1b:01:bb:8f:ca:fb:fa:d1:
                    a7:73:d5:72:9d:c1:3b:cd:47:21:44:0a:25:5c:27:
                    37:d4:7e:49:89:0a:9f:00:a3:06:db:12:bb:8b:ec:
                    a7:b0:57:95:44:c3:22:14:8a:a0:74:f2:f8:ea:24:
                    e6:75:c9:89:4f:a8:2f:75:22:91:47:bb:dc:c2:ca:
                    44:ec:8a:4f:f7:f7:1d:19:7c:55:cc:4a:4b:60:d6:
                    49:87:41:41:66:9d:c8:a0:2b:21:d4:90:a3:86:6f:
                    75:fb:60:45:24:31:6f:d1:ee:fb:e2:b9:ca:e3:b3:
                    ab:0c:aa:5a:f6:46:ac:94:ae:95:21:94:15:6c:13:
                    93:66:f9:27:b1:cd:6d:ce:dd:0a:dd:87:16:3f:21:
                    3e:57:a2:75:26:f4:bb:e1:12:1d:85:04:37:69:aa:
                    cb:21:b5:27:f3:76:51:8d:b8:c4:92:1e:aa:60:ff:
                    c4:a2:16:d1:b5:1f:b3:39:ed:aa:84:ab:2c:30:ab:
                    eb:24:35:1b:49:18:bb:06:e8:59:e3:9d:a6:05:6b:
                    02:48:a7:eb:f2:c7:74:57:28:9c:50:dc:d6:36:11:
                    43:92:d3:e8:18:e4:eb:5a:c2:30:e2:98:10:a2:5e:
                    8a:29
                Exponent: 65537 (0x10001)
        X509v3 extensions:
            Authority Information Access: 
                CA Issuers - URI:http://labs-ca.stratio.com/labs-ca.crt
                OCSP - URI:http://ocsp.labs-ca.stratio.com:9081

            X509v3 Authority Key Identifier: 
                keyid:09:29:3F:86:66:E6:A2:74:16:B9:F5:E2:24:ED:B6:14:82:AD:75:52

            X509v3 Basic Constraints: critical
                CA:FALSE
            X509v3 CRL Distribution Points: 

                Full Name:
                  URI:http://labs-ca.stratio.com/labs-ca.crl

            X509v3 Extended Key Usage: 
                TLS Web Client Authentication, TLS Web Server Authentication
            X509v3 Key Usage: critical
                Digital Signature, Key Encipherment
            X509v3 Subject Key Identifier: 
                A0:8B:79:9A:A6:79:4C:7F:2C:11:D8:A8:F2:12:72:29:78:50:84:0B
            X509v3 Subject Alternative Name: 
                DNS:herd, DNS:herd.kraken.cluster
    Signature Algorithm: sha256WithRSAEncryption
         74:7a:47:7a:b5:3b:38:c1:96:68:ed:38:f9:0b:37:77:5f:a8:
         cc:82:ec:4a:e0:3f:f5:d4:23:6b:01:35:02:07:73:82:ff:20:
         9d:ae:c2:f1:da:2a:1d:51:fc:b1:5b:94:ac:db:08:bb:f4:2d:
         86:3c:c1:df:51:66:65:88:a2:54:15:47:cf:2f:31:3c:97:1c:
         7c:cd:4b:89:19:58:76:72:f6:0b:6d:3b:9c:79:93:c0:8c:f6:
         56:df:9a:64:55:85:c3:8c:6c:06:f8:a1:b7:81:87:9b:96:25:
         c8:a9:df:9e:2c:d8:aa:85:6c:0c:80:d6:a0:53:00:99:7c:3d:
         09:42:d4:bd:8d:2e:03:14:65:38:79:8e:ec:6b:02:ac:90:ae:
         58:70:8e:b0:36:ba:cd:d3:fd:73:0e:52:01:80:e9:17:f1:63:
         7c:39:79:5c:f9:98:f9:37:9e:fb:a2:d7:1e:24:bf:3f:bd:7e:
         75:31:50:24:e5:81:c1:91:2f:b0:db:12:65:b1:e0:00:42:12:
         18:62:81:70:be:32:44:25:e5:2f:c8:64:38:06:13:8c:a7:d4:
         87:5c:0c:8c:59:85:89:37:94:a2:58:b5:ef:f7:3e:17:bd:61:
         1f:13:a5:09:80:e0:3a:88:0b:cb:3c:cc:a1:32:3a:85:6d:0a:
         7b:10:39:8d:98:62:84:d8:f7:f2:92:a8:ff:89:81:8b:89:a9:
         83:e1:97:f2:78:04:36:50:66:3b:09:9d:1d:23:dd:42:4d:82:
         3a:c1:08:ae:6a:8a:1a:1a:53:64:ad:c8:9d:98:f0:9a:4b:a3:
         1f:2f:7d:3e:23:91:ed:83:f7:74:0d:31:2b:eb:71:bc:77:cf:
         f9:2a:8d:fb:c1:85:9e:d1:94:de:9a:58:5d:af:07:67:96:5d:
         56:3c:3b:aa:9d:e9:12:b4:ea:d6:ea:02:b3:7e:c1:c4:5d:e1:
         6b:98:da:68:0e:15:c4:87:9e:1f:90:af:c6:13:fd:43:11:31:
         44:53:19:38:b5:fb:eb:0c:a6:3c:f7:54:b7:22:57:3b:b7:77:
         ef:98:91:ad:16:91:92:76:bc:37:ff:e3:da:32:d0:1b:3a:25:
         61:6a:0f:dd:3d:48:d9:8d:a2:a4:dc:ab:29:f0:fc:cd:82:dc:
         9c:2a:0f:c1:94:4e:50:e0:28:6a:6a:04:96:40:13:0f:cd:7c:
         3b:0c:f1:02:04:e5:ef:40:e7:e0:13:09:e8:be:62:48:8e:6f:
         9c:cc:c5:2c:20:ea:a7:26:f3:14:fc:9d:ba:93:37:8d:60:18:
         18:89:7c:35:1e:16:e5:96:49:ba:dd:39:c9:f6:f1:fb:f4:ba:
         19:13:0d:04:7c:68:9c:96
-----BEGIN CERTIFICATE-----
MIIFRjCCAy6gAwIBAgIQFEM9ahGmdq9dCYJYLZJG8zANBgkqhkiG9w0BAQsFADA2
MQswCQYDVQQGEwJFUzEQMA4GA1UECgwHU3RyYXRpbzEVMBMGA1UEAwwMTGFicyB0
ZWFtIENBMB4XDTIwMDMyMDEzMTIwM1oXDTIxMDMyMDEzMTIwM1owLjELMAkGA1UE
BhMCRVMxEDAOBgNVBAoMB1N0cmF0aW8xDTALBgNVBAMMBGhlcmQwggEiMA0GCSqG
SIb3DQEBAQUAA4IBDwAwggEKAoIBAQDSxgaDZsZ4lDY36RIO8CrJghS0u1obAbuP
yvv60adz1XKdwTvNRyFECiVcJzfUfkmJCp8AowbbEruL7KewV5VEwyIUiqB08vjq
JOZ1yYlPqC91IpFHu9zCykTsik/39x0ZfFXMSktg1kmHQUFmncigKyHUkKOGb3X7
YEUkMW/R7vviucrjs6sMqlr2RqyUrpUhlBVsE5Nm+SexzW3O3QrdhxY/IT5XonUm
9LvhEh2FBDdpqsshtSfzdlGNuMSSHqpg/8SiFtG1H7M57aqEqywwq+skNRtJGLsG
6FnjnaYFawJIp+vyx3RXKJxQ3NY2EUOS0+gY5OtawjDimBCiXoopAgMBAAGjggFW
MIIBUjB0BggrBgEFBQcBAQRoMGYwMgYIKwYBBQUHMAKGJmh0dHA6Ly9sYWJzLWNh
LnN0cmF0aW8uY29tL2xhYnMtY2EuY3J0MDAGCCsGAQUFBzABhiRodHRwOi8vb2Nz
cC5sYWJzLWNhLnN0cmF0aW8uY29tOjkwODEwHwYDVR0jBBgwFoAUCSk/hmbmonQW
ufXiJO22FIKtdVIwDAYDVR0TAQH/BAIwADA3BgNVHR8EMDAuMCygKqAohiZodHRw
Oi8vbGFicy1jYS5zdHJhdGlvLmNvbS9sYWJzLWNhLmNybDAdBgNVHSUEFjAUBggr
BgEFBQcDAgYIKwYBBQUHAwEwDgYDVR0PAQH/BAQDAgWgMB0GA1UdDgQWBBSgi3ma
pnlMfywR2KjyEnIpeFCECzAkBgNVHREEHTAbggRoZXJkghNoZXJkLmtyYWtlbi5j
bHVzdGVyMA0GCSqGSIb3DQEBCwUAA4ICAQB0ekd6tTs4wZZo7Tj5Czd3X6jMguxK
4D/11CNrATUCB3OC/yCdrsLx2iodUfyxW5Ss2wi79C2GPMHfUWZliKJUFUfPLzE8
lxx8zUuJGVh2cvYLbTuceZPAjPZW35pkVYXDjGwG+KG3gYebliXIqd+eLNiqhWwM
gNagUwCZfD0JQtS9jS4DFGU4eY7sawKskK5YcI6wNrrN0/1zDlIBgOkX8WN8OXlc
+Zj5N577otceJL8/vX51MVAk5YHBkS+w2xJlseAAQhIYYoFwvjJEJeUvyGQ4BhOM
p9SHXAyMWYWJN5SiWLXv9z4XvWEfE6UJgOA6iAvLPMyhMjqFbQp7EDmNmGKE2Pfy
kqj/iYGLiamD4ZfyeAQ2UGY7CZ0dI91CTYI6wQiuaooaGlNkrcidmPCaS6MfL30+
I5Htg/d0DTEr63G8d8/5Ko37wYWe0ZTemlhdrwdnll1WPDuqnekStOrW6gKzfsHE
XeFrmNpoDhXEh54fkK/GE/1DETFEUxk4tfvrDKY891S3Ilc7t3fvmJGtFpGSdrw3
/+PaMtAbOiVhag/dPUjZjaKk3Ksp8PzNgtycKg/BlE5Q4ChqagSWQBMPzXw7DPEC
BOXvQOfgEwnovmJIjm+czMUsIOqnJvMU/J26kzeNYBgYiXw1Hhbllkm63TnJ9vH7
9LoZEw0EfGiclg==
-----END CERTIFICATE-----
-----BEGIN CERTIFICATE-----
MIIFOjCCAyKgAwIBAgIQdWSbQJ/CYk1/BERap1nTPTANBgkqhkiG9w0BAQsFADA4
MQswCQYDVQQGEwJFUzEQMA4GA1UECgwHU3RyYXRpbzEXMBUGA1UEAwwOU3RyYXRp
byBJbmMgQ0EwHhcNMTYxMDIxMTUxNjEyWhcNMjYxMDE5MTUxNjEyWjA2MQswCQYD
VQQGEwJFUzEQMA4GA1UECgwHU3RyYXRpbzEVMBMGA1UEAwwMTGFicyB0ZWFtIENB
MIICIjANBgkqhkiG9w0BAQEFAAOCAg8AMIICCgKCAgEAtMw5w9bxjXur+T3A/sFE
cDCKxvKWU1Um86puh36D3Zc55/aTpNzq8UqyEtTUbr9xuqpkriQWPZcS3CZEDW0w
nEXmZ6/ukQ059T9wv6P+YGEXMqaVHn3qPGwiZ8WbClVrGfDwTl+9sfqvfR6keJq8
rJkxE21ECW94ikI7Tk19s0Rz62xf+/FFRndQbTsech9Opi4TC2zMd9h9rPyRwfSm
VHMKPmqm+nnAoDjBlUalxjt+n7Vs269ZBqfusn25Em+BIMwU4z13csHIuZuB/mvm
qipxc2VHHrvhlCeoSgqWnNvmok4D8Ug+9sASAKYn1stdkSxCqwLLWb9PR/fUcqor
vz1S8KNc07c7IIt2ip5sXGWSJKIazak4CHiJGEQ11jO4NOFsXp+tDaQgT/21Aq45
zHJyf9ymT8c0ztwe9oQI1UYXHyopfyW1o9Ca5/MxQeXWcCPEFE1IMoA/e6vDWF09
liDOZl94lSwZ2ev+zGGDN+WU4ZojCbjdLCv/tbuSdyiTd4jV6dCShObyWMc6l+TA
fHvHFkxD29MDC165evoSXWMZtqriyt2h/9kWmqgblpz0oJ4kFPQ9RY5n34FHMSva
bkSTWkjcV8m6/4YDaRWYTo7a+ObJ9a6sk0J8pfYYcpwn4QoFS+12IA95ea51TWN1
bEoIFaVEqBDy5y3Qe7JSWNkCAwEAAaNCMEAwDwYDVR0TAQH/BAUwAwEB/zAOBgNV
HQ8BAf8EBAMCAQYwHQYDVR0OBBYEFAkpP4Zm5qJ0Frn14iTtthSCrXVSMA0GCSqG
SIb3DQEBCwUAA4ICAQA/Pnv9Lf/Ic/EeJYjFGZ84bICIZ/cFFNPcb4lWc7zJNOg2
690t748MwqDUQYvCL4f5Dh+rvssLxK/FlMGDiw4UrZGHdHS5u3bTTUrbwG1NHQKR
nthdz1xtx/TlBn4NvqVokcB7AkC5XVwpTvvVvcgpRp+ffYK3gd6arOb6oOOzRYDa
wFgPEZdZrbREh9p1k0NpbkUcmNiNMjQhV+DqVvGI+pYTOP4686Q4PvC7OGma5X3T
0MWwUJ3iMPdo4qAGJB8GV4XbyPapMd7vqFzsf18yAKmT9Q2afr1U1KCQ/zourY1u
qBeor5CzJzCDqLDxgXrBauVwB844Epa24x98RQGfZuIULZGPn0Sf8sF4L2bwmBBQ
M29yAWO4DLEZU0yqQTUHV7oJmNN+i0iE4wNSlC/Gz/wV3LCG+tseQkgvRziN8hwo
TGg6n9EvT2NdD0QpzJ2D7PQeJIytKEYzJKVRCZkn3Xcoy1SzIKiG0xDLME22rjFu
vWFyw1r/OnErIM7RL4GLZ3gAm00CRq4e2GarcEeLAq1d7rcSxV5/84pOIX9mH7PN
JTg5js6pOn9hrZWmmwRKYYVTPFqkAlTurrO0NjOT/kmDdHT0Xnaq0LRg0bKa79iD
JcylT5C08PAJX5S9esPXhNwS6rxMwk1ApmdE5USs/hn3geDAebJ0aRwIwnX5+g==
-----END CERTIFICATE-----
-----BEGIN CERTIFICATE-----
MIIFPDCCAySgAwIBAgIQdWSbQJ/CYk1/BERap1nTNjANBgkqhkiG9w0BAQsFADA4
MQswCQYDVQQGEwJFUzEQMA4GA1UECgwHU3RyYXRpbzEXMBUGA1UEAwwOU3RyYXRp
byBJbmMgQ0EwHhcNMTYwMjE5MTEzODI2WhcNMjYwMjE2MTEzODI2WjA4MQswCQYD
VQQGEwJFUzEQMA4GA1UECgwHU3RyYXRpbzEXMBUGA1UEAwwOU3RyYXRpbyBJbmMg
Q0EwggIiMA0GCSqGSIb3DQEBAQUAA4ICDwAwggIKAoICAQC2boA0hxlI9cDcSrt9
56lPnNuQ0ek/NnuWw6dsGXZeC1RHBR5m3/0jGnKRMpW2PpmTp7eG2ngOCbZMd5tG
hZHoposlCHSjRrJvhXWPRDP52WvtSgsckcJtKw1uoo3lqZGBPAHpvg3ExxcWY8Q/
b7H3Rc0zY2nM/whiayJPwO4+wE3gGiQwFrvsaekFjX/bNwBnZRiSAHm6iYeL0qfw
vSUwBcs0Wzh2yCKOuNqnuk+xFy3iaj5ADWGDxhm4Qf4q5UKJCriYZnWWSn0CDIHl
ZPc05sXERO52OCyzAG5Bm8qCGeCBtgpFQtHf72gbJFfSqJKs0VQ7U8N9ucI3NAEp
vt0NDXALF+4EoyV+0vCrq4U5f7geUSKPSEZWI2lpyz+NCZ95BrTFSHLDuNsTXJLn
mJjOYCymAm5luKA6DQw3HyNXIndgKV2e5BfhSWx3HP4J0DxO7kB2F1APUSijNZAe
2x6x+SO85CR6dT46pEvoGypD8EiRRoDHbQ8Vw1ulVh8nXoJzCs8v3exQUt1ZG7G1
Pcmp/S4xPF0Y6/HP0IIe2pxJ4uzOYaaARki3AI8pwHfD6OON6tRC0wjnPB4qYPta
nVJo4Nr/UWmq8vpgLKrI2kE3ceiPkNgb7/cXepyseTDBQidvCwV/ZyixmafwDgDi
02zN/FI4yS3aMtpyXtrTkKlLXwIDAQABo0IwQDAPBgNVHRMBAf8EBTADAQH/MA4G
A1UdDwEB/wQEAwIBBjAdBgNVHQ4EFgQU1T68/Oa44A7bgn6wxN1deQVukKQwDQYJ
KoZIhvcNAQELBQADggIBAEGTbgPUdRcWCgLclrbIOJ9wNC/T0LhmAuMyPtXJVfoj
aH1XlWWGZw9CTAD0/d/W1cE0QwLi7MI0IWV6Lb4VjaogXIga7ND5uLzZ5iJb7SK8
+gjK0d8hpGUKrwLzS6jUuL4vieM9DF7/VPi4EJm4EL35QfNpnb4Y17yOY1FZwZjt
wlPZWGrG0plRTi70/Mgic4a3KtC1I33RUUruF3nk+Fm+VEJJzmoOi01JwDwuM1hT
6lI4USNLp2vy4l1iJSdBSlwwNEthv1C/eHqC2XkH8Kr6kufW8s2Cnqu1tHJ/U+ns
/m5dDcrP22i/toDKVwOdquFdB4bg42PWyKeQi85UlHVSPwlTiB7gXZi97vtIDlIf
YZ6V3zy4fSUudaBXEm4IOY7IoRFB1zoqSj86KtufjOLAfqAcUFqYJGKEIfjbGist
agDKh5VRTtmgWnCSp252h27UHrYMWSv9/oi6H7m9dv5ZBuUgeYnxsgZYDgic4xA8
0POOWAiMwYdoIQwQghdGLRDuXT8krg8/ery42xmIvqW0xpJzROAVzWgtEUFFtFfM
nrFjf2b4o6Mw8A6AflbL1zeRuum/Uz+sFVVSUS1uzWrIRSTN6M2tRpu6EuRuNCJk
NXxqQ5v3iBCpoKsXEBqDeymnT4WEFqv+Rq2ZHbticZ+vXbu8039fau7bdmVS9Bjj
-----END CERTIFICATE-----
