Certificate:
    Data:
        Version: 3 (0x2)
        Serial Number:
            14:43:3d:6a:11:a6:76:af:5d:09:82:58:2d:92:46:f2
        Signature Algorithm: sha256WithRSAEncryption
        Issuer: C=ES, O=Stratio, CN=Labs team CA
        Validity
            Not Before: Mar 20 13:12:02 2020 GMT
            Not After : Mar 20 13:12:02 2021 GMT
        Subject: C=ES, O=Stratio, CN=herd
        Subject Public Key Info:
            Public Key Algorithm: rsaEncryption
                RSA Public-Key: (2048 bit)
                Modulus:
                    00:db:07:a9:ee:83:e0:c4:69:95:0a:02:a9:88:d5:
                    6e:61:e9:23:73:46:cb:1e:4d:52:ef:65:de:8b:be:
                    0f:dc:03:d5:8a:0b:c6:06:ba:e2:a8:a5:a0:f7:3b:
                    43:61:73:71:d5:5c:28:a9:90:05:39:98:e9:d1:0f:
                    3f:6c:d3:40:e5:1a:e5:ea:04:7e:05:74:73:74:a7:
                    fa:d6:9a:57:66:0f:d2:70:fd:dd:75:4a:a1:8e:3b:
                    8b:0b:b6:4d:7b:bc:a4:b4:2e:e5:13:26:30:a3:6a:
                    91:17:d2:4a:39:70:ec:74:08:19:35:a7:67:a4:7e:
                    68:d7:71:87:37:b6:d9:4b:43:fe:91:4d:ce:2a:f5:
                    15:9d:c3:79:bc:43:ea:b2:ec:2b:64:8d:88:f5:58:
                    eb:a1:da:1c:63:58:a3:44:a4:bf:17:17:cf:19:2c:
                    04:d6:05:1a:0a:25:77:fd:83:c0:21:2b:9d:d0:a8:
                    9d:0c:71:9f:33:6b:71:f1:c1:13:e2:5c:22:b1:4d:
                    d0:63:bd:e9:49:57:7c:de:55:d3:19:55:fe:03:94:
                    b0:7a:0c:44:b3:44:46:1a:d2:97:43:e0:d8:48:78:
                    cc:cd:5f:60:97:b1:4e:18:7b:4a:4a:40:41:bb:eb:
                    a2:50:6e:21:b1:28:aa:01:43:ed:22:4f:2a:04:f1:
                    a7:17
                Exponent: 65537 (0x10001)
        X509v3 extensions:
            Authority Information Access: 
                CA Issuers - URI:http://labs-ca.stratio.com/labs-ca.crt
                OCSP - URI:http://ocsp.labs-ca.stratio.com:9081

            X509v3 Authority Key Identifier: 
                keyid:09:29:3F:86:66:E6:A2:74:16:B9:F5:E2:24:ED:B6:14:82:AD:75:52

            X509v3 Basic Constraints: critical
                CA:FALSE
            X509v3 CRL Distribution Points: 

                Full Name:
                  URI:http://labs-ca.stratio.com/labs-ca.crl

            X509v3 Extended Key Usage: 
                TLS Web Client Authentication, TLS Web Server Authentication
            X509v3 Key Usage: critical
                Digital Signature, Key Encipherment
            X509v3 Subject Key Identifier: 
                F6:2D:80:97:8E:9D:28:9F:39:53:BB:53:50:03:88:9F:67:35:69:8B
            X509v3 Subject Alternative Name: 
                DNS:herd, DNS:herd.kraken.cluster
    Signature Algorithm: sha256WithRSAEncryption
         16:f5:ed:3b:c6:8f:1c:5e:87:bc:e2:e3:99:d6:c4:b7:7a:9e:
         18:1b:ad:ff:9b:93:6e:0e:a0:0a:21:b4:5f:f3:e2:d6:98:87:
         02:14:e3:ac:45:5b:91:0d:05:dc:be:8a:d2:5f:ac:fc:f0:6d:
         91:6f:5d:c9:44:5b:f2:77:9f:69:2d:49:8e:2f:d8:f4:f5:d9:
         48:88:49:d3:ba:f9:20:53:a2:9a:f4:93:46:df:e6:c5:05:47:
         82:1e:a9:95:3d:fa:fc:99:94:81:3b:3b:9a:0f:ef:f0:fa:22:
         14:51:d5:9a:2f:64:9d:ba:15:f1:75:d4:03:c9:4c:4a:3d:35:
         a8:b4:cb:ff:b6:32:9d:25:1c:b1:73:37:95:96:80:ff:31:da:
         a1:b1:b8:6a:01:78:91:9f:ee:2b:84:28:9d:fb:4d:13:05:6d:
         0b:68:8c:90:fd:a9:e5:19:8c:c1:23:dd:77:58:39:4c:39:b0:
         3e:f4:27:55:0d:23:9e:76:e3:f9:5c:06:da:48:1c:a3:db:87:
         db:83:ab:01:27:f8:47:9e:49:20:9b:83:de:c7:f5:eb:62:5c:
         3d:fc:80:34:1d:06:bc:93:9a:77:f3:f2:49:62:1e:a0:39:b9:
         82:7d:02:6a:6d:dd:13:aa:b0:52:ce:a4:fc:70:fe:fb:1b:61:
         d8:8c:77:0e:b1:bd:01:86:c2:7e:17:c3:20:a2:fa:e2:17:28:
         7f:aa:25:19:a5:de:09:bd:f5:09:33:27:41:2c:e8:7c:41:4f:
         e4:30:66:40:0c:86:42:8b:ea:d0:2b:33:29:c2:6b:9e:81:c8:
         b9:00:ff:ba:66:f2:6f:14:8c:d4:29:ac:bf:96:82:1e:dd:f3:
         d2:d8:d9:d6:06:6b:8f:bf:00:f3:6d:53:40:bd:8c:7b:e9:bc:
         78:ce:be:b2:45:c2:f1:a9:1f:ec:6a:9f:55:f6:fb:82:80:9c:
         fc:88:fd:0b:7b:7d:e9:94:e6:a3:24:34:e1:f4:c4:2c:32:3c:
         e8:43:67:a9:bb:f4:a8:aa:d1:d8:6c:8d:c9:69:1e:4b:c8:c4:
         65:f8:bb:32:ec:ae:d1:dc:be:5e:78:58:39:2b:2e:43:bc:62:
         99:3b:a4:57:47:5e:92:d0:56:e5:cd:db:6c:2d:fc:d6:de:9d:
         e3:5d:78:a0:24:a4:7e:43:7a:11:bc:19:81:56:e2:af:42:36:
         a8:3f:d3:db:65:61:c5:b0:4e:e6:99:8b:55:15:22:4b:65:58:
         0b:7c:e6:56:13:d9:5e:f3:af:7a:b7:09:6c:07:29:f6:13:20:
         53:f4:7e:ab:4a:3f:14:dd:9b:64:7a:a5:b6:ff:41:fb:01:e6:
         cd:da:d2:8b:1e:67:0a:7f
-----BEGIN CERTIFICATE-----
MIIFRjCCAy6gAwIBAgIQFEM9ahGmdq9dCYJYLZJG8jANBgkqhkiG9w0BAQsFADA2
MQswCQYDVQQGEwJFUzEQMA4GA1UECgwHU3RyYXRpbzEVMBMGA1UEAwwMTGFicyB0
ZWFtIENBMB4XDTIwMDMyMDEzMTIwMloXDTIxMDMyMDEzMTIwMlowLjELMAkGA1UE
BhMCRVMxEDAOBgNVBAoMB1N0cmF0aW8xDTALBgNVBAMMBGhlcmQwggEiMA0GCSqG
SIb3DQEBAQUAA4IBDwAwggEKAoIBAQDbB6nug+DEaZUKAqmI1W5h6SNzRsseTVLv
Zd6Lvg/cA9WKC8YGuuKopaD3O0Nhc3HVXCipkAU5mOnRDz9s00DlGuXqBH4FdHN0
p/rWmldmD9Jw/d11SqGOO4sLtk17vKS0LuUTJjCjapEX0ko5cOx0CBk1p2ekfmjX
cYc3ttlLQ/6RTc4q9RWdw3m8Q+qy7CtkjYj1WOuh2hxjWKNEpL8XF88ZLATWBRoK
JXf9g8AhK53QqJ0McZ8za3HxwRPiXCKxTdBjvelJV3zeVdMZVf4DlLB6DESzREYa
0pdD4NhIeMzNX2CXsU4Ye0pKQEG766JQbiGxKKoBQ+0iTyoE8acXAgMBAAGjggFW
MIIBUjB0BggrBgEFBQcBAQRoMGYwMgYIKwYBBQUHMAKGJmh0dHA6Ly9sYWJzLWNh
LnN0cmF0aW8uY29tL2xhYnMtY2EuY3J0MDAGCCsGAQUFBzABhiRodHRwOi8vb2Nz
cC5sYWJzLWNhLnN0cmF0aW8uY29tOjkwODEwHwYDVR0jBBgwFoAUCSk/hmbmonQW
ufXiJO22FIKtdVIwDAYDVR0TAQH/BAIwADA3BgNVHR8EMDAuMCygKqAohiZodHRw
Oi8vbGFicy1jYS5zdHJhdGlvLmNvbS9sYWJzLWNhLmNybDAdBgNVHSUEFjAUBggr
BgEFBQcDAgYIKwYBBQUHAwEwDgYDVR0PAQH/BAQDAgWgMB0GA1UdDgQWBBT2LYCX
jp0onzlTu1NQA4ifZzVpizAkBgNVHREEHTAbggRoZXJkghNoZXJkLmtyYWtlbi5j
bHVzdGVyMA0GCSqGSIb3DQEBCwUAA4ICAQAW9e07xo8cXoe84uOZ1sS3ep4YG63/
m5NuDqAKIbRf8+LWmIcCFOOsRVuRDQXcvorSX6z88G2Rb13JRFvyd59pLUmOL9j0
9dlIiEnTuvkgU6Ka9JNG3+bFBUeCHqmVPfr8mZSBOzuaD+/w+iIUUdWaL2SduhXx
ddQDyUxKPTWotMv/tjKdJRyxczeVloD/MdqhsbhqAXiRn+4rhCid+00TBW0LaIyQ
/anlGYzBI913WDlMObA+9CdVDSOeduP5XAbaSByj24fbg6sBJ/hHnkkgm4Pex/Xr
Ylw9/IA0HQa8k5p38/JJYh6gObmCfQJqbd0TqrBSzqT8cP77G2HYjHcOsb0BhsJ+
F8MgovriFyh/qiUZpd4JvfUJMydBLOh8QU/kMGZADIZCi+rQKzMpwmuegci5AP+6
ZvJvFIzUKay/loIe3fPS2NnWBmuPvwDzbVNAvYx76bx4zr6yRcLxqR/sap9V9vuC
gJz8iP0Le33plOajJDTh9MQsMjzoQ2epu/SoqtHYbI3JaR5LyMRl+Lsy7K7R3L5e
eFg5Ky5DvGKZO6RXR16S0FblzdtsLfzW3p3jXXigJKR+Q3oRvBmBVuKvQjaoP9Pb
ZWHFsE7mmYtVFSJLZVgLfOZWE9le8696twlsByn2EyBT9H6rSj8U3ZtkeqW2/0H7
AebN2tKLHmcKfw==
-----END CERTIFICATE-----
-----BEGIN CERTIFICATE-----
MIIFOjCCAyKgAwIBAgIQdWSbQJ/CYk1/BERap1nTPTANBgkqhkiG9w0BAQsFADA4
MQswCQYDVQQGEwJFUzEQMA4GA1UECgwHU3RyYXRpbzEXMBUGA1UEAwwOU3RyYXRp
byBJbmMgQ0EwHhcNMTYxMDIxMTUxNjEyWhcNMjYxMDE5MTUxNjEyWjA2MQswCQYD
VQQGEwJFUzEQMA4GA1UECgwHU3RyYXRpbzEVMBMGA1UEAwwMTGFicyB0ZWFtIENB
MIICIjANBgkqhkiG9w0BAQEFAAOCAg8AMIICCgKCAgEAtMw5w9bxjXur+T3A/sFE
cDCKxvKWU1Um86puh36D3Zc55/aTpNzq8UqyEtTUbr9xuqpkriQWPZcS3CZEDW0w
nEXmZ6/ukQ059T9wv6P+YGEXMqaVHn3qPGwiZ8WbClVrGfDwTl+9sfqvfR6keJq8
rJkxE21ECW94ikI7Tk19s0Rz62xf+/FFRndQbTsech9Opi4TC2zMd9h9rPyRwfSm
VHMKPmqm+nnAoDjBlUalxjt+n7Vs269ZBqfusn25Em+BIMwU4z13csHIuZuB/mvm
qipxc2VHHrvhlCeoSgqWnNvmok4D8Ug+9sASAKYn1stdkSxCqwLLWb9PR/fUcqor
vz1S8KNc07c7IIt2ip5sXGWSJKIazak4CHiJGEQ11jO4NOFsXp+tDaQgT/21Aq45
zHJyf9ymT8c0ztwe9oQI1UYXHyopfyW1o9Ca5/MxQeXWcCPEFE1IMoA/e6vDWF09
liDOZl94lSwZ2ev+zGGDN+WU4ZojCbjdLCv/tbuSdyiTd4jV6dCShObyWMc6l+TA
fHvHFkxD29MDC165evoSXWMZtqriyt2h/9kWmqgblpz0oJ4kFPQ9RY5n34FHMSva
bkSTWkjcV8m6/4YDaRWYTo7a+ObJ9a6sk0J8pfYYcpwn4QoFS+12IA95ea51TWN1
bEoIFaVEqBDy5y3Qe7JSWNkCAwEAAaNCMEAwDwYDVR0TAQH/BAUwAwEB/zAOBgNV
HQ8BAf8EBAMCAQYwHQYDVR0OBBYEFAkpP4Zm5qJ0Frn14iTtthSCrXVSMA0GCSqG
SIb3DQEBCwUAA4ICAQA/Pnv9Lf/Ic/EeJYjFGZ84bICIZ/cFFNPcb4lWc7zJNOg2
690t748MwqDUQYvCL4f5Dh+rvssLxK/FlMGDiw4UrZGHdHS5u3bTTUrbwG1NHQKR
nthdz1xtx/TlBn4NvqVokcB7AkC5XVwpTvvVvcgpRp+ffYK3gd6arOb6oOOzRYDa
wFgPEZdZrbREh9p1k0NpbkUcmNiNMjQhV+DqVvGI+pYTOP4686Q4PvC7OGma5X3T
0MWwUJ3iMPdo4qAGJB8GV4XbyPapMd7vqFzsf18yAKmT9Q2afr1U1KCQ/zourY1u
qBeor5CzJzCDqLDxgXrBauVwB844Epa24x98RQGfZuIULZGPn0Sf8sF4L2bwmBBQ
M29yAWO4DLEZU0yqQTUHV7oJmNN+i0iE4wNSlC/Gz/wV3LCG+tseQkgvRziN8hwo
TGg6n9EvT2NdD0QpzJ2D7PQeJIytKEYzJKVRCZkn3Xcoy1SzIKiG0xDLME22rjFu
vWFyw1r/OnErIM7RL4GLZ3gAm00CRq4e2GarcEeLAq1d7rcSxV5/84pOIX9mH7PN
JTg5js6pOn9hrZWmmwRKYYVTPFqkAlTurrO0NjOT/kmDdHT0Xnaq0LRg0bKa79iD
JcylT5C08PAJX5S9esPXhNwS6rxMwk1ApmdE5USs/hn3geDAebJ0aRwIwnX5+g==
-----END CERTIFICATE-----
-----BEGIN CERTIFICATE-----
MIIFPDCCAySgAwIBAgIQdWSbQJ/CYk1/BERap1nTNjANBgkqhkiG9w0BAQsFADA4
MQswCQYDVQQGEwJFUzEQMA4GA1UECgwHU3RyYXRpbzEXMBUGA1UEAwwOU3RyYXRp
byBJbmMgQ0EwHhcNMTYwMjE5MTEzODI2WhcNMjYwMjE2MTEzODI2WjA4MQswCQYD
VQQGEwJFUzEQMA4GA1UECgwHU3RyYXRpbzEXMBUGA1UEAwwOU3RyYXRpbyBJbmMg
Q0EwggIiMA0GCSqGSIb3DQEBAQUAA4ICDwAwggIKAoICAQC2boA0hxlI9cDcSrt9
56lPnNuQ0ek/NnuWw6dsGXZeC1RHBR5m3/0jGnKRMpW2PpmTp7eG2ngOCbZMd5tG
hZHoposlCHSjRrJvhXWPRDP52WvtSgsckcJtKw1uoo3lqZGBPAHpvg3ExxcWY8Q/
b7H3Rc0zY2nM/whiayJPwO4+wE3gGiQwFrvsaekFjX/bNwBnZRiSAHm6iYeL0qfw
vSUwBcs0Wzh2yCKOuNqnuk+xFy3iaj5ADWGDxhm4Qf4q5UKJCriYZnWWSn0CDIHl
ZPc05sXERO52OCyzAG5Bm8qCGeCBtgpFQtHf72gbJFfSqJKs0VQ7U8N9ucI3NAEp
vt0NDXALF+4EoyV+0vCrq4U5f7geUSKPSEZWI2lpyz+NCZ95BrTFSHLDuNsTXJLn
mJjOYCymAm5luKA6DQw3HyNXIndgKV2e5BfhSWx3HP4J0DxO7kB2F1APUSijNZAe
2x6x+SO85CR6dT46pEvoGypD8EiRRoDHbQ8Vw1ulVh8nXoJzCs8v3exQUt1ZG7G1
Pcmp/S4xPF0Y6/HP0IIe2pxJ4uzOYaaARki3AI8pwHfD6OON6tRC0wjnPB4qYPta
nVJo4Nr/UWmq8vpgLKrI2kE3ceiPkNgb7/cXepyseTDBQidvCwV/ZyixmafwDgDi
02zN/FI4yS3aMtpyXtrTkKlLXwIDAQABo0IwQDAPBgNVHRMBAf8EBTADAQH/MA4G
A1UdDwEB/wQEAwIBBjAdBgNVHQ4EFgQU1T68/Oa44A7bgn6wxN1deQVukKQwDQYJ
KoZIhvcNAQELBQADggIBAEGTbgPUdRcWCgLclrbIOJ9wNC/T0LhmAuMyPtXJVfoj
aH1XlWWGZw9CTAD0/d/W1cE0QwLi7MI0IWV6Lb4VjaogXIga7ND5uLzZ5iJb7SK8
+gjK0d8hpGUKrwLzS6jUuL4vieM9DF7/VPi4EJm4EL35QfNpnb4Y17yOY1FZwZjt
wlPZWGrG0plRTi70/Mgic4a3KtC1I33RUUruF3nk+Fm+VEJJzmoOi01JwDwuM1hT
6lI4USNLp2vy4l1iJSdBSlwwNEthv1C/eHqC2XkH8Kr6kufW8s2Cnqu1tHJ/U+ns
/m5dDcrP22i/toDKVwOdquFdB4bg42PWyKeQi85UlHVSPwlTiB7gXZi97vtIDlIf
YZ6V3zy4fSUudaBXEm4IOY7IoRFB1zoqSj86KtufjOLAfqAcUFqYJGKEIfjbGist
agDKh5VRTtmgWnCSp252h27UHrYMWSv9/oi6H7m9dv5ZBuUgeYnxsgZYDgic4xA8
0POOWAiMwYdoIQwQghdGLRDuXT8krg8/ery42xmIvqW0xpJzROAVzWgtEUFFtFfM
nrFjf2b4o6Mw8A6AflbL1zeRuum/Uz+sFVVSUS1uzWrIRSTN6M2tRpu6EuRuNCJk
NXxqQ5v3iBCpoKsXEBqDeymnT4WEFqv+Rq2ZHbticZ+vXbu8039fau7bdmVS9Bjj
-----END CERTIFICATE-----
