Certificate:
    Data:
        Version: 3 (0x2)
        Serial Number:
            14:43:3d:6a:11:a6:76:af:5d:09:82:58:2d:92:47:02
        Signature Algorithm: sha256WithRSAEncryption
        Issuer: C=ES, O=Stratio, CN=Labs team CA
        Validity
            Not Before: Mar 30 13:09:20 2020 GMT
            Not After : Mar 30 13:09:20 2021 GMT
        Subject: C=ES, O=Stratio, CN=agent-2
        Subject Public Key Info:
            Public Key Algorithm: rsaEncryption
                RSA Public-Key: (2048 bit)
                Modulus:
                    00:dd:b1:c0:69:ab:85:00:79:3f:17:3a:42:f7:c3:
                    9f:a9:ee:b8:4f:eb:a6:fd:97:1e:99:b8:f2:14:e2:
                    6a:4b:41:1e:00:ba:a0:b9:be:0e:bc:6c:dc:d6:48:
                    b0:c8:4d:40:4e:d2:08:17:f9:47:82:40:dc:26:a5:
                    1d:9f:b3:fc:8c:1f:5b:97:31:4b:e8:00:b1:ac:89:
                    bf:b3:bd:48:4d:ab:13:a1:fc:4e:ac:38:9f:bc:f4:
                    d0:84:50:31:61:fd:10:f6:f0:b0:f5:d2:fe:61:0e:
                    18:59:63:ab:b2:9d:c2:3e:9d:01:d7:e9:b9:f7:28:
                    5c:c6:50:98:d8:4a:3b:1e:6f:6c:8e:17:4d:6a:54:
                    07:d2:05:61:8f:c0:e4:f1:2b:1e:b5:a7:85:2b:30:
                    ff:e0:b9:1b:e3:4c:3f:0a:79:38:7d:55:f9:59:5d:
                    42:c4:5c:00:cd:e4:81:36:b6:c0:ed:be:16:d5:e4:
                    ed:5a:4b:8b:5f:29:00:83:ce:3e:b9:a5:2a:35:2c:
                    4b:af:51:49:28:4f:73:70:ea:8c:e3:89:35:6a:cc:
                    3e:a8:52:4e:34:10:4f:f2:d1:4b:bf:5c:e3:37:63:
                    a7:c2:64:d6:8d:77:fb:66:c0:c2:bf:33:75:bd:00:
                    4f:e8:0e:7e:1e:23:ee:f1:d4:0c:92:58:35:a5:f0:
                    fe:61
                Exponent: 65537 (0x10001)
        X509v3 extensions:
            Authority Information Access: 
                CA Issuers - URI:http://labs-ca.stratio.com/labs-ca.crt
                OCSP - URI:http://ocsp.labs-ca.stratio.com:9081

            X509v3 Authority Key Identifier: 
                keyid:09:29:3F:86:66:E6:A2:74:16:B9:F5:E2:24:ED:B6:14:82:AD:75:52

            X509v3 Basic Constraints: critical
                CA:FALSE
            X509v3 CRL Distribution Points: 

                Full Name:
                  URI:http://labs-ca.stratio.com/labs-ca.crl

            X509v3 Extended Key Usage: 
                TLS Web Client Authentication, TLS Web Server Authentication
            X509v3 Key Usage: critical
                Digital Signature, Key Encipherment
            X509v3 Subject Key Identifier: 
                96:8E:9F:C6:A6:7F:16:34:77:F2:FA:10:D8:93:32:4E:93:B7:93:3E
            X509v3 Subject Alternative Name: 
                DNS:agent-2, DNS:agent-2.kraken.cluster, DNS:registry, DNS:registry.kraken.cluster
    Signature Algorithm: sha256WithRSAEncryption
         0c:f0:84:f6:3e:a6:4a:95:42:26:09:10:b7:d4:0c:dc:55:37:
         c2:16:2b:69:d4:48:8f:71:13:23:18:97:01:08:e9:95:5e:4a:
         98:05:8d:91:52:15:73:6c:69:f3:d8:81:ef:4a:fb:95:c0:c8:
         b5:8f:94:df:ef:a8:b2:64:3b:c4:42:f9:cb:49:56:b6:84:05:
         99:e7:ef:00:62:c7:90:e4:ab:87:7c:ba:19:69:5d:84:e3:12:
         30:e9:46:a1:bf:63:42:99:57:fb:a0:c9:33:a8:34:96:76:23:
         64:e0:0f:9a:89:76:a2:bc:83:bd:0d:b4:98:27:82:1f:39:1f:
         0a:c1:24:23:ab:54:52:58:2e:80:fa:cc:8a:de:12:72:68:88:
         59:da:ed:4d:d9:a9:73:a2:48:5d:43:fe:86:f0:4b:1a:09:9d:
         5b:10:8b:6e:84:c2:a9:fb:bd:fb:fb:ad:d5:5b:c2:73:2e:ce:
         7f:88:f6:78:e3:5c:65:e2:23:2c:44:7c:f6:5b:46:10:a8:3e:
         8e:31:9c:a4:36:53:f2:05:06:f5:ef:16:6f:44:6c:65:de:2a:
         5d:f7:27:2b:7b:3c:ba:84:e0:fd:f6:50:82:fd:6b:b7:cb:0c:
         dd:cd:00:8d:b0:67:8e:76:5a:21:7c:37:53:e6:e3:34:26:2e:
         d9:07:4d:0d:c7:e4:2d:4c:da:b3:6a:64:95:a5:12:c4:e0:fc:
         44:7b:7f:c4:5d:de:2a:ad:35:6c:03:80:6f:19:e8:8c:2d:bf:
         da:be:34:a8:c0:2e:9c:7e:2f:20:a0:38:36:7d:05:ac:71:a7:
         b7:73:e2:7e:82:61:db:41:46:ca:a4:e7:6e:7d:cc:8f:4d:f4:
         f1:78:ef:d6:ed:36:05:39:39:d4:76:f9:6a:7b:d5:b3:98:fe:
         5c:61:5f:b1:fc:2e:17:43:77:79:01:6c:b8:5b:40:4a:fd:01:
         0c:8a:27:ff:23:03:e5:6a:ae:a2:e8:59:5a:a5:a8:12:d6:af:
         0c:b8:03:e3:2a:0e:ba:92:bd:2c:ba:62:b1:c0:b4:7f:5f:3c:
         b5:e3:49:ef:40:7a:de:57:fb:f6:40:87:6b:8a:85:f4:20:50:
         b3:2f:14:95:a9:bc:15:a5:4a:7c:9d:c6:fd:06:c6:d8:7c:2b:
         70:f1:c8:b6:8f:c7:d1:00:80:5e:93:26:19:18:de:a3:b4:89:
         02:94:53:87:79:cc:4f:23:ac:05:b2:47:06:95:24:97:d7:5d:
         bf:f4:2b:3d:5f:82:5c:15:eb:92:7c:57:26:a2:b2:79:d6:76:
         65:0b:f0:9a:39:d0:de:3e:ed:6d:b7:10:3b:8e:33:fa:92:56:
         92:91:e4:55:c5:1e:fd:78
-----BEGIN CERTIFICATE-----
MIIFcjCCA1qgAwIBAgIQFEM9ahGmdq9dCYJYLZJHAjANBgkqhkiG9w0BAQsFADA2
MQswCQYDVQQGEwJFUzEQMA4GA1UECgwHU3RyYXRpbzEVMBMGA1UEAwwMTGFicyB0
ZWFtIENBMB4XDTIwMDMzMDEzMDkyMFoXDTIxMDMzMDEzMDkyMFowMTELMAkGA1UE
BhMCRVMxEDAOBgNVBAoMB1N0cmF0aW8xEDAOBgNVBAMMB2FnZW50LTIwggEiMA0G
CSqGSIb3DQEBAQUAA4IBDwAwggEKAoIBAQDdscBpq4UAeT8XOkL3w5+p7rhP66b9
lx6ZuPIU4mpLQR4AuqC5vg68bNzWSLDITUBO0ggX+UeCQNwmpR2fs/yMH1uXMUvo
ALGsib+zvUhNqxOh/E6sOJ+89NCEUDFh/RD28LD10v5hDhhZY6uyncI+nQHX6bn3
KFzGUJjYSjseb2yOF01qVAfSBWGPwOTxKx61p4UrMP/guRvjTD8KeTh9VflZXULE
XADN5IE2tsDtvhbV5O1aS4tfKQCDzj65pSo1LEuvUUkoT3Nw6ozjiTVqzD6oUk40
EE/y0Uu/XOM3Y6fCZNaNd/tmwMK/M3W9AE/oDn4eI+7x1AySWDWl8P5hAgMBAAGj
ggF/MIIBezB0BggrBgEFBQcBAQRoMGYwMgYIKwYBBQUHMAKGJmh0dHA6Ly9sYWJz
LWNhLnN0cmF0aW8uY29tL2xhYnMtY2EuY3J0MDAGCCsGAQUFBzABhiRodHRwOi8v
b2NzcC5sYWJzLWNhLnN0cmF0aW8uY29tOjkwODEwHwYDVR0jBBgwFoAUCSk/hmbm
onQWufXiJO22FIKtdVIwDAYDVR0TAQH/BAIwADA3BgNVHR8EMDAuMCygKqAohiZo
dHRwOi8vbGFicy1jYS5zdHJhdGlvLmNvbS9sYWJzLWNhLmNybDAdBgNVHSUEFjAU
BggrBgEFBQcDAgYIKwYBBQUHAwEwDgYDVR0PAQH/BAQDAgWgMB0GA1UdDgQWBBSW
jp/Gpn8WNHfy+hDYkzJOk7eTPjBNBgNVHREERjBEggdhZ2VudC0yghZhZ2VudC0y
LmtyYWtlbi5jbHVzdGVygghyZWdpc3RyeYIXcmVnaXN0cnkua3Jha2VuLmNsdXN0
ZXIwDQYJKoZIhvcNAQELBQADggIBAAzwhPY+pkqVQiYJELfUDNxVN8IWK2nUSI9x
EyMYlwEI6ZVeSpgFjZFSFXNsafPYge9K+5XAyLWPlN/vqLJkO8RC+ctJVraEBZnn
7wBix5Dkq4d8uhlpXYTjEjDpRqG/Y0KZV/ugyTOoNJZ2I2TgD5qJdqK8g70NtJgn
gh85HwrBJCOrVFJYLoD6zIreEnJoiFna7U3ZqXOiSF1D/obwSxoJnVsQi26Ewqn7
vfv7rdVbwnMuzn+I9njjXGXiIyxEfPZbRhCoPo4xnKQ2U/IFBvXvFm9EbGXeKl33
Jyt7PLqE4P32UIL9a7fLDN3NAI2wZ452WiF8N1Pm4zQmLtkHTQ3H5C1M2rNqZJWl
EsTg/ER7f8Rd3iqtNWwDgG8Z6Iwtv9q+NKjALpx+LyCgODZ9Baxxp7dz4n6CYdtB
Rsqk5259zI9N9PF479btNgU5OdR2+Wp71bOY/lxhX7H8LhdDd3kBbLhbQEr9AQyK
J/8jA+VqrqLoWVqlqBLWrwy4A+MqDrqSvSy6YrHAtH9fPLXjSe9Aet5X+/ZAh2uK
hfQgULMvFJWpvBWlSnydxv0Gxth8K3DxyLaPx9EAgF6TJhkY3qO0iQKUU4d5zE8j
rAWyRwaVJJfXXb/0Kz1fglwV65J8VyaisnnWdmUL8Jo50N4+7W23EDuOM/qSVpKR
5FXFHv14
-----END CERTIFICATE-----
-----BEGIN CERTIFICATE-----
MIIFOjCCAyKgAwIBAgIQdWSbQJ/CYk1/BERap1nTPTANBgkqhkiG9w0BAQsFADA4
MQswCQYDVQQGEwJFUzEQMA4GA1UECgwHU3RyYXRpbzEXMBUGA1UEAwwOU3RyYXRp
byBJbmMgQ0EwHhcNMTYxMDIxMTUxNjEyWhcNMjYxMDE5MTUxNjEyWjA2MQswCQYD
VQQGEwJFUzEQMA4GA1UECgwHU3RyYXRpbzEVMBMGA1UEAwwMTGFicyB0ZWFtIENB
MIICIjANBgkqhkiG9w0BAQEFAAOCAg8AMIICCgKCAgEAtMw5w9bxjXur+T3A/sFE
cDCKxvKWU1Um86puh36D3Zc55/aTpNzq8UqyEtTUbr9xuqpkriQWPZcS3CZEDW0w
nEXmZ6/ukQ059T9wv6P+YGEXMqaVHn3qPGwiZ8WbClVrGfDwTl+9sfqvfR6keJq8
rJkxE21ECW94ikI7Tk19s0Rz62xf+/FFRndQbTsech9Opi4TC2zMd9h9rPyRwfSm
VHMKPmqm+nnAoDjBlUalxjt+n7Vs269ZBqfusn25Em+BIMwU4z13csHIuZuB/mvm
qipxc2VHHrvhlCeoSgqWnNvmok4D8Ug+9sASAKYn1stdkSxCqwLLWb9PR/fUcqor
vz1S8KNc07c7IIt2ip5sXGWSJKIazak4CHiJGEQ11jO4NOFsXp+tDaQgT/21Aq45
zHJyf9ymT8c0ztwe9oQI1UYXHyopfyW1o9Ca5/MxQeXWcCPEFE1IMoA/e6vDWF09
liDOZl94lSwZ2ev+zGGDN+WU4ZojCbjdLCv/tbuSdyiTd4jV6dCShObyWMc6l+TA
fHvHFkxD29MDC165evoSXWMZtqriyt2h/9kWmqgblpz0oJ4kFPQ9RY5n34FHMSva
bkSTWkjcV8m6/4YDaRWYTo7a+ObJ9a6sk0J8pfYYcpwn4QoFS+12IA95ea51TWN1
bEoIFaVEqBDy5y3Qe7JSWNkCAwEAAaNCMEAwDwYDVR0TAQH/BAUwAwEB/zAOBgNV
HQ8BAf8EBAMCAQYwHQYDVR0OBBYEFAkpP4Zm5qJ0Frn14iTtthSCrXVSMA0GCSqG
SIb3DQEBCwUAA4ICAQA/Pnv9Lf/Ic/EeJYjFGZ84bICIZ/cFFNPcb4lWc7zJNOg2
690t748MwqDUQYvCL4f5Dh+rvssLxK/FlMGDiw4UrZGHdHS5u3bTTUrbwG1NHQKR
nthdz1xtx/TlBn4NvqVokcB7AkC5XVwpTvvVvcgpRp+ffYK3gd6arOb6oOOzRYDa
wFgPEZdZrbREh9p1k0NpbkUcmNiNMjQhV+DqVvGI+pYTOP4686Q4PvC7OGma5X3T
0MWwUJ3iMPdo4qAGJB8GV4XbyPapMd7vqFzsf18yAKmT9Q2afr1U1KCQ/zourY1u
qBeor5CzJzCDqLDxgXrBauVwB844Epa24x98RQGfZuIULZGPn0Sf8sF4L2bwmBBQ
M29yAWO4DLEZU0yqQTUHV7oJmNN+i0iE4wNSlC/Gz/wV3LCG+tseQkgvRziN8hwo
TGg6n9EvT2NdD0QpzJ2D7PQeJIytKEYzJKVRCZkn3Xcoy1SzIKiG0xDLME22rjFu
vWFyw1r/OnErIM7RL4GLZ3gAm00CRq4e2GarcEeLAq1d7rcSxV5/84pOIX9mH7PN
JTg5js6pOn9hrZWmmwRKYYVTPFqkAlTurrO0NjOT/kmDdHT0Xnaq0LRg0bKa79iD
JcylT5C08PAJX5S9esPXhNwS6rxMwk1ApmdE5USs/hn3geDAebJ0aRwIwnX5+g==
-----END CERTIFICATE-----
-----BEGIN CERTIFICATE-----
MIIFPDCCAySgAwIBAgIQdWSbQJ/CYk1/BERap1nTNjANBgkqhkiG9w0BAQsFADA4
MQswCQYDVQQGEwJFUzEQMA4GA1UECgwHU3RyYXRpbzEXMBUGA1UEAwwOU3RyYXRp
byBJbmMgQ0EwHhcNMTYwMjE5MTEzODI2WhcNMjYwMjE2MTEzODI2WjA4MQswCQYD
VQQGEwJFUzEQMA4GA1UECgwHU3RyYXRpbzEXMBUGA1UEAwwOU3RyYXRpbyBJbmMg
Q0EwggIiMA0GCSqGSIb3DQEBAQUAA4ICDwAwggIKAoICAQC2boA0hxlI9cDcSrt9
56lPnNuQ0ek/NnuWw6dsGXZeC1RHBR5m3/0jGnKRMpW2PpmTp7eG2ngOCbZMd5tG
hZHoposlCHSjRrJvhXWPRDP52WvtSgsckcJtKw1uoo3lqZGBPAHpvg3ExxcWY8Q/
b7H3Rc0zY2nM/whiayJPwO4+wE3gGiQwFrvsaekFjX/bNwBnZRiSAHm6iYeL0qfw
vSUwBcs0Wzh2yCKOuNqnuk+xFy3iaj5ADWGDxhm4Qf4q5UKJCriYZnWWSn0CDIHl
ZPc05sXERO52OCyzAG5Bm8qCGeCBtgpFQtHf72gbJFfSqJKs0VQ7U8N9ucI3NAEp
vt0NDXALF+4EoyV+0vCrq4U5f7geUSKPSEZWI2lpyz+NCZ95BrTFSHLDuNsTXJLn
mJjOYCymAm5luKA6DQw3HyNXIndgKV2e5BfhSWx3HP4J0DxO7kB2F1APUSijNZAe
2x6x+SO85CR6dT46pEvoGypD8EiRRoDHbQ8Vw1ulVh8nXoJzCs8v3exQUt1ZG7G1
Pcmp/S4xPF0Y6/HP0IIe2pxJ4uzOYaaARki3AI8pwHfD6OON6tRC0wjnPB4qYPta
nVJo4Nr/UWmq8vpgLKrI2kE3ceiPkNgb7/cXepyseTDBQidvCwV/ZyixmafwDgDi
02zN/FI4yS3aMtpyXtrTkKlLXwIDAQABo0IwQDAPBgNVHRMBAf8EBTADAQH/MA4G
A1UdDwEB/wQEAwIBBjAdBgNVHQ4EFgQU1T68/Oa44A7bgn6wxN1deQVukKQwDQYJ
KoZIhvcNAQELBQADggIBAEGTbgPUdRcWCgLclrbIOJ9wNC/T0LhmAuMyPtXJVfoj
aH1XlWWGZw9CTAD0/d/W1cE0QwLi7MI0IWV6Lb4VjaogXIga7ND5uLzZ5iJb7SK8
+gjK0d8hpGUKrwLzS6jUuL4vieM9DF7/VPi4EJm4EL35QfNpnb4Y17yOY1FZwZjt
wlPZWGrG0plRTi70/Mgic4a3KtC1I33RUUruF3nk+Fm+VEJJzmoOi01JwDwuM1hT
6lI4USNLp2vy4l1iJSdBSlwwNEthv1C/eHqC2XkH8Kr6kufW8s2Cnqu1tHJ/U+ns
/m5dDcrP22i/toDKVwOdquFdB4bg42PWyKeQi85UlHVSPwlTiB7gXZi97vtIDlIf
YZ6V3zy4fSUudaBXEm4IOY7IoRFB1zoqSj86KtufjOLAfqAcUFqYJGKEIfjbGist
agDKh5VRTtmgWnCSp252h27UHrYMWSv9/oi6H7m9dv5ZBuUgeYnxsgZYDgic4xA8
0POOWAiMwYdoIQwQghdGLRDuXT8krg8/ery42xmIvqW0xpJzROAVzWgtEUFFtFfM
nrFjf2b4o6Mw8A6AflbL1zeRuum/Uz+sFVVSUS1uzWrIRSTN6M2tRpu6EuRuNCJk
NXxqQ5v3iBCpoKsXEBqDeymnT4WEFqv+Rq2ZHbticZ+vXbu8039fau7bdmVS9Bjj
-----END CERTIFICATE-----
