Certificate:
    Data:
        Version: 3 (0x2)
        Serial Number:
            14:43:3d:6a:11:a6:76:af:5d:09:82:58:2d:92:47:00
        Signature Algorithm: sha256WithRSAEncryption
        Issuer: C=ES, O=Stratio, CN=Labs team CA
        Validity
            Not Before: Mar 30 13:09:19 2020 GMT
            Not After : Mar 30 13:09:19 2021 GMT
        Subject: C=ES, O=Stratio, CN=agent-1
        Subject Public Key Info:
            Public Key Algorithm: rsaEncryption
                RSA Public-Key: (2048 bit)
                Modulus:
                    00:bf:d0:96:fe:4a:d3:ca:31:89:03:0b:bb:ce:b9:
                    f3:1d:0f:68:13:e7:59:b9:54:8c:5d:16:bd:63:f1:
                    82:14:64:9a:52:89:0a:c3:88:e8:0b:be:c9:9d:40:
                    db:d8:12:54:a1:b8:01:04:14:7d:83:89:0b:84:c0:
                    28:35:d8:28:e6:b8:10:0c:8f:5c:1f:60:ba:9a:86:
                    2a:ff:e4:c9:05:7c:27:87:1b:6e:0c:20:ca:55:5e:
                    01:a6:5d:65:aa:fb:26:ec:e4:20:f6:f6:a9:ae:53:
                    2e:e2:0c:22:c1:59:3c:e9:f3:e0:cb:a6:58:04:1c:
                    77:97:67:fd:da:7d:18:ce:fa:c5:b9:f6:fb:0a:d6:
                    1b:55:65:27:f0:0f:ba:89:df:31:7b:5b:32:f0:94:
                    d2:f3:c6:4e:55:82:34:65:ee:5c:9e:4d:04:6b:9d:
                    a7:f2:de:5e:28:56:5f:a8:31:16:b3:a9:9e:39:7f:
                    8f:a9:4c:6d:0a:da:ca:de:67:8c:c5:c7:f6:3b:22:
                    7b:8e:f8:ff:f5:4d:ca:ff:38:63:69:81:a9:a9:2d:
                    a2:3a:e2:0f:fe:97:c3:c4:e7:9a:14:e3:e5:aa:61:
                    e4:b4:76:c6:58:c3:fb:87:b1:f9:ff:e7:19:0d:02:
                    fb:f4:c8:56:29:22:ab:48:a8:86:99:2b:da:ea:18:
                    f7:f3
                Exponent: 65537 (0x10001)
        X509v3 extensions:
            Authority Information Access: 
                CA Issuers - URI:http://labs-ca.stratio.com/labs-ca.crt
                OCSP - URI:http://ocsp.labs-ca.stratio.com:9081

            X509v3 Authority Key Identifier: 
                keyid:09:29:3F:86:66:E6:A2:74:16:B9:F5:E2:24:ED:B6:14:82:AD:75:52

            X509v3 Basic Constraints: critical
                CA:FALSE
            X509v3 CRL Distribution Points: 

                Full Name:
                  URI:http://labs-ca.stratio.com/labs-ca.crl

            X509v3 Extended Key Usage: 
                TLS Web Client Authentication, TLS Web Server Authentication
            X509v3 Key Usage: critical
                Digital Signature, Key Encipherment
            X509v3 Subject Key Identifier: 
                46:D1:3D:F9:53:94:B9:3E:AE:A9:B4:F3:DB:25:83:3B:78:52:E9:10
            X509v3 Subject Alternative Name: 
                DNS:agent-1, DNS:agent-1.kraken.cluster, DNS:registry, DNS:registry.kraken.cluster
    Signature Algorithm: sha256WithRSAEncryption
         85:4d:ad:5d:bc:ab:ad:6e:38:1a:17:10:94:bd:89:7d:cb:8f:
         a9:ed:62:e6:c7:2e:d3:7e:01:01:46:87:b3:34:2c:19:d2:91:
         50:15:1d:c7:2d:46:10:e2:38:2a:53:35:12:7c:ba:95:ec:cb:
         5e:b0:fa:95:ea:b2:6b:40:92:b6:13:99:df:2f:d0:aa:39:6a:
         12:6f:7e:b7:fb:6e:fb:94:30:56:4c:d2:bd:37:4a:84:9c:66:
         72:eb:f0:d2:49:d7:f5:de:4b:9e:48:cc:9a:e9:1c:f0:cd:53:
         b6:a8:a6:ce:0c:54:75:ee:72:d4:88:29:81:f3:87:db:60:3e:
         f3:72:42:92:02:d7:dd:eb:12:83:71:f6:df:85:ba:36:a1:73:
         a3:04:24:c7:93:99:18:4c:b0:c9:6a:d6:e3:4d:73:83:dc:ea:
         a1:33:b6:9d:a5:98:22:6d:0c:5f:4c:2c:ff:86:83:7a:ab:f4:
         db:4b:e0:7b:ca:56:53:9f:b3:0b:b3:75:d0:b9:08:f3:ad:2e:
         2f:e1:d8:82:5f:80:00:84:c1:5c:6a:d2:9c:e1:64:a7:25:35:
         22:df:79:65:a9:91:b8:18:a3:90:7e:72:f8:5f:54:76:61:fc:
         b2:90:dc:91:85:d6:4e:cd:de:63:2e:92:4c:cf:ed:62:09:f8:
         c6:48:af:f1:19:e2:fd:30:d5:33:27:8a:98:eb:df:3e:53:3a:
         d2:ee:65:a6:69:1b:e6:52:28:9e:25:82:14:0e:44:48:2b:92:
         17:55:17:d1:86:25:70:43:58:ad:cd:3c:69:98:1f:ff:93:5a:
         7f:72:08:82:c8:b3:b7:91:29:ff:2d:1b:d0:4a:7f:49:4b:0e:
         48:40:1e:f6:be:98:25:82:3f:30:d1:e1:24:4a:2d:b4:4d:ee:
         a2:07:cb:ff:c0:dc:01:c2:35:fb:47:cd:ca:bc:50:b0:ac:3b:
         33:8d:6b:db:6f:0f:fc:7b:33:ef:dc:2d:ba:b6:98:a1:c6:c4:
         33:70:9d:67:84:fa:99:48:a6:aa:2e:84:1a:07:d6:db:de:39:
         0c:cb:10:d2:b2:05:b3:db:6e:f1:8c:20:02:c3:72:63:42:65:
         bd:e3:dc:24:51:a2:52:4e:d8:4a:e2:11:32:2e:79:e0:0b:65:
         a4:4d:69:06:39:0e:a4:28:78:4a:bf:c3:8c:55:5d:90:fa:f8:
         54:8e:30:16:25:3f:a9:69:a8:6e:c7:12:8a:4b:32:65:bb:5a:
         84:ec:cf:04:cb:46:25:50:20:49:d7:bb:8a:fa:03:8e:26:05:
         99:0f:62:d6:16:27:e9:bb:08:cc:8b:e5:db:73:5f:9f:8c:a4:
         19:0d:f3:4a:44:c0:32:33
-----BEGIN CERTIFICATE-----
MIIFcjCCA1qgAwIBAgIQFEM9ahGmdq9dCYJYLZJHADANBgkqhkiG9w0BAQsFADA2
MQswCQYDVQQGEwJFUzEQMA4GA1UECgwHU3RyYXRpbzEVMBMGA1UEAwwMTGFicyB0
ZWFtIENBMB4XDTIwMDMzMDEzMDkxOVoXDTIxMDMzMDEzMDkxOVowMTELMAkGA1UE
BhMCRVMxEDAOBgNVBAoMB1N0cmF0aW8xEDAOBgNVBAMMB2FnZW50LTEwggEiMA0G
CSqGSIb3DQEBAQUAA4IBDwAwggEKAoIBAQC/0Jb+StPKMYkDC7vOufMdD2gT51m5
VIxdFr1j8YIUZJpSiQrDiOgLvsmdQNvYElShuAEEFH2DiQuEwCg12CjmuBAMj1wf
YLqahir/5MkFfCeHG24MIMpVXgGmXWWq+ybs5CD29qmuUy7iDCLBWTzp8+DLplgE
HHeXZ/3afRjO+sW59vsK1htVZSfwD7qJ3zF7WzLwlNLzxk5VgjRl7lyeTQRrnafy
3l4oVl+oMRazqZ45f4+pTG0K2sreZ4zFx/Y7InuO+P/1Tcr/OGNpgampLaI64g/+
l8PE55oU4+WqYeS0dsZYw/uHsfn/5xkNAvv0yFYpIqtIqIaZK9rqGPfzAgMBAAGj
ggF/MIIBezB0BggrBgEFBQcBAQRoMGYwMgYIKwYBBQUHMAKGJmh0dHA6Ly9sYWJz
LWNhLnN0cmF0aW8uY29tL2xhYnMtY2EuY3J0MDAGCCsGAQUFBzABhiRodHRwOi8v
b2NzcC5sYWJzLWNhLnN0cmF0aW8uY29tOjkwODEwHwYDVR0jBBgwFoAUCSk/hmbm
onQWufXiJO22FIKtdVIwDAYDVR0TAQH/BAIwADA3BgNVHR8EMDAuMCygKqAohiZo
dHRwOi8vbGFicy1jYS5zdHJhdGlvLmNvbS9sYWJzLWNhLmNybDAdBgNVHSUEFjAU
BggrBgEFBQcDAgYIKwYBBQUHAwEwDgYDVR0PAQH/BAQDAgWgMB0GA1UdDgQWBBRG
0T35U5S5Pq6ptPPbJYM7eFLpEDBNBgNVHREERjBEggdhZ2VudC0xghZhZ2VudC0x
LmtyYWtlbi5jbHVzdGVygghyZWdpc3RyeYIXcmVnaXN0cnkua3Jha2VuLmNsdXN0
ZXIwDQYJKoZIhvcNAQELBQADggIBAIVNrV28q61uOBoXEJS9iX3Lj6ntYubHLtN+
AQFGh7M0LBnSkVAVHcctRhDiOCpTNRJ8upXsy16w+pXqsmtAkrYTmd8v0Ko5ahJv
frf7bvuUMFZM0r03SoScZnLr8NJJ1/XeS55IzJrpHPDNU7aops4MVHXuctSIKYHz
h9tgPvNyQpIC193rEoNx9t+Fujahc6MEJMeTmRhMsMlq1uNNc4Pc6qEztp2lmCJt
DF9MLP+Gg3qr9NtL4HvKVlOfswuzddC5CPOtLi/h2IJfgACEwVxq0pzhZKclNSLf
eWWpkbgYo5B+cvhfVHZh/LKQ3JGF1k7N3mMukkzP7WIJ+MZIr/EZ4v0w1TMnipjr
3z5TOtLuZaZpG+ZSKJ4lghQOREgrkhdVF9GGJXBDWK3NPGmYH/+TWn9yCILIs7eR
Kf8tG9BKf0lLDkhAHva+mCWCPzDR4SRKLbRN7qIHy//A3AHCNftHzcq8ULCsOzON
a9tvD/x7M+/cLbq2mKHGxDNwnWeE+plIpqouhBoH1tveOQzLENKyBbPbbvGMIALD
cmNCZb3j3CRRolJO2EriETIueeALZaRNaQY5DqQoeEq/w4xVXZD6+FSOMBYlP6lp
qG7HEopLMmW7WoTszwTLRiVQIEnXu4r6A44mBZkPYtYWJ+m7CMyL5dtzX5+MpBkN
80pEwDIz
-----END CERTIFICATE-----
-----BEGIN CERTIFICATE-----
MIIFOjCCAyKgAwIBAgIQdWSbQJ/CYk1/BERap1nTPTANBgkqhkiG9w0BAQsFADA4
MQswCQYDVQQGEwJFUzEQMA4GA1UECgwHU3RyYXRpbzEXMBUGA1UEAwwOU3RyYXRp
byBJbmMgQ0EwHhcNMTYxMDIxMTUxNjEyWhcNMjYxMDE5MTUxNjEyWjA2MQswCQYD
VQQGEwJFUzEQMA4GA1UECgwHU3RyYXRpbzEVMBMGA1UEAwwMTGFicyB0ZWFtIENB
MIICIjANBgkqhkiG9w0BAQEFAAOCAg8AMIICCgKCAgEAtMw5w9bxjXur+T3A/sFE
cDCKxvKWU1Um86puh36D3Zc55/aTpNzq8UqyEtTUbr9xuqpkriQWPZcS3CZEDW0w
nEXmZ6/ukQ059T9wv6P+YGEXMqaVHn3qPGwiZ8WbClVrGfDwTl+9sfqvfR6keJq8
rJkxE21ECW94ikI7Tk19s0Rz62xf+/FFRndQbTsech9Opi4TC2zMd9h9rPyRwfSm
VHMKPmqm+nnAoDjBlUalxjt+n7Vs269ZBqfusn25Em+BIMwU4z13csHIuZuB/mvm
qipxc2VHHrvhlCeoSgqWnNvmok4D8Ug+9sASAKYn1stdkSxCqwLLWb9PR/fUcqor
vz1S8KNc07c7IIt2ip5sXGWSJKIazak4CHiJGEQ11jO4NOFsXp+tDaQgT/21Aq45
zHJyf9ymT8c0ztwe9oQI1UYXHyopfyW1o9Ca5/MxQeXWcCPEFE1IMoA/e6vDWF09
liDOZl94lSwZ2ev+zGGDN+WU4ZojCbjdLCv/tbuSdyiTd4jV6dCShObyWMc6l+TA
fHvHFkxD29MDC165evoSXWMZtqriyt2h/9kWmqgblpz0oJ4kFPQ9RY5n34FHMSva
bkSTWkjcV8m6/4YDaRWYTo7a+ObJ9a6sk0J8pfYYcpwn4QoFS+12IA95ea51TWN1
bEoIFaVEqBDy5y3Qe7JSWNkCAwEAAaNCMEAwDwYDVR0TAQH/BAUwAwEB/zAOBgNV
HQ8BAf8EBAMCAQYwHQYDVR0OBBYEFAkpP4Zm5qJ0Frn14iTtthSCrXVSMA0GCSqG
SIb3DQEBCwUAA4ICAQA/Pnv9Lf/Ic/EeJYjFGZ84bICIZ/cFFNPcb4lWc7zJNOg2
690t748MwqDUQYvCL4f5Dh+rvssLxK/FlMGDiw4UrZGHdHS5u3bTTUrbwG1NHQKR
nthdz1xtx/TlBn4NvqVokcB7AkC5XVwpTvvVvcgpRp+ffYK3gd6arOb6oOOzRYDa
wFgPEZdZrbREh9p1k0NpbkUcmNiNMjQhV+DqVvGI+pYTOP4686Q4PvC7OGma5X3T
0MWwUJ3iMPdo4qAGJB8GV4XbyPapMd7vqFzsf18yAKmT9Q2afr1U1KCQ/zourY1u
qBeor5CzJzCDqLDxgXrBauVwB844Epa24x98RQGfZuIULZGPn0Sf8sF4L2bwmBBQ
M29yAWO4DLEZU0yqQTUHV7oJmNN+i0iE4wNSlC/Gz/wV3LCG+tseQkgvRziN8hwo
TGg6n9EvT2NdD0QpzJ2D7PQeJIytKEYzJKVRCZkn3Xcoy1SzIKiG0xDLME22rjFu
vWFyw1r/OnErIM7RL4GLZ3gAm00CRq4e2GarcEeLAq1d7rcSxV5/84pOIX9mH7PN
JTg5js6pOn9hrZWmmwRKYYVTPFqkAlTurrO0NjOT/kmDdHT0Xnaq0LRg0bKa79iD
JcylT5C08PAJX5S9esPXhNwS6rxMwk1ApmdE5USs/hn3geDAebJ0aRwIwnX5+g==
-----END CERTIFICATE-----
-----BEGIN CERTIFICATE-----
MIIFPDCCAySgAwIBAgIQdWSbQJ/CYk1/BERap1nTNjANBgkqhkiG9w0BAQsFADA4
MQswCQYDVQQGEwJFUzEQMA4GA1UECgwHU3RyYXRpbzEXMBUGA1UEAwwOU3RyYXRp
byBJbmMgQ0EwHhcNMTYwMjE5MTEzODI2WhcNMjYwMjE2MTEzODI2WjA4MQswCQYD
VQQGEwJFUzEQMA4GA1UECgwHU3RyYXRpbzEXMBUGA1UEAwwOU3RyYXRpbyBJbmMg
Q0EwggIiMA0GCSqGSIb3DQEBAQUAA4ICDwAwggIKAoICAQC2boA0hxlI9cDcSrt9
56lPnNuQ0ek/NnuWw6dsGXZeC1RHBR5m3/0jGnKRMpW2PpmTp7eG2ngOCbZMd5tG
hZHoposlCHSjRrJvhXWPRDP52WvtSgsckcJtKw1uoo3lqZGBPAHpvg3ExxcWY8Q/
b7H3Rc0zY2nM/whiayJPwO4+wE3gGiQwFrvsaekFjX/bNwBnZRiSAHm6iYeL0qfw
vSUwBcs0Wzh2yCKOuNqnuk+xFy3iaj5ADWGDxhm4Qf4q5UKJCriYZnWWSn0CDIHl
ZPc05sXERO52OCyzAG5Bm8qCGeCBtgpFQtHf72gbJFfSqJKs0VQ7U8N9ucI3NAEp
vt0NDXALF+4EoyV+0vCrq4U5f7geUSKPSEZWI2lpyz+NCZ95BrTFSHLDuNsTXJLn
mJjOYCymAm5luKA6DQw3HyNXIndgKV2e5BfhSWx3HP4J0DxO7kB2F1APUSijNZAe
2x6x+SO85CR6dT46pEvoGypD8EiRRoDHbQ8Vw1ulVh8nXoJzCs8v3exQUt1ZG7G1
Pcmp/S4xPF0Y6/HP0IIe2pxJ4uzOYaaARki3AI8pwHfD6OON6tRC0wjnPB4qYPta
nVJo4Nr/UWmq8vpgLKrI2kE3ceiPkNgb7/cXepyseTDBQidvCwV/ZyixmafwDgDi
02zN/FI4yS3aMtpyXtrTkKlLXwIDAQABo0IwQDAPBgNVHRMBAf8EBTADAQH/MA4G
A1UdDwEB/wQEAwIBBjAdBgNVHQ4EFgQU1T68/Oa44A7bgn6wxN1deQVukKQwDQYJ
KoZIhvcNAQELBQADggIBAEGTbgPUdRcWCgLclrbIOJ9wNC/T0LhmAuMyPtXJVfoj
aH1XlWWGZw9CTAD0/d/W1cE0QwLi7MI0IWV6Lb4VjaogXIga7ND5uLzZ5iJb7SK8
+gjK0d8hpGUKrwLzS6jUuL4vieM9DF7/VPi4EJm4EL35QfNpnb4Y17yOY1FZwZjt
wlPZWGrG0plRTi70/Mgic4a3KtC1I33RUUruF3nk+Fm+VEJJzmoOi01JwDwuM1hT
6lI4USNLp2vy4l1iJSdBSlwwNEthv1C/eHqC2XkH8Kr6kufW8s2Cnqu1tHJ/U+ns
/m5dDcrP22i/toDKVwOdquFdB4bg42PWyKeQi85UlHVSPwlTiB7gXZi97vtIDlIf
YZ6V3zy4fSUudaBXEm4IOY7IoRFB1zoqSj86KtufjOLAfqAcUFqYJGKEIfjbGist
agDKh5VRTtmgWnCSp252h27UHrYMWSv9/oi6H7m9dv5ZBuUgeYnxsgZYDgic4xA8
0POOWAiMwYdoIQwQghdGLRDuXT8krg8/ery42xmIvqW0xpJzROAVzWgtEUFFtFfM
nrFjf2b4o6Mw8A6AflbL1zeRuum/Uz+sFVVSUS1uzWrIRSTN6M2tRpu6EuRuNCJk
NXxqQ5v3iBCpoKsXEBqDeymnT4WEFqv+Rq2ZHbticZ+vXbu8039fau7bdmVS9Bjj
-----END CERTIFICATE-----
