Certificate:
    Data:
        Version: 3 (0x2)
        Serial Number:
            14:43:3d:6a:11:a6:76:af:5d:09:82:58:2d:92:47:03
        Signature Algorithm: sha256WithRSAEncryption
        Issuer: C=ES, O=Stratio, CN=Labs team CA
        Validity
            Not Before: Mar 30 13:09:20 2020 GMT
            Not After : Mar 30 13:09:20 2021 GMT
        Subject: C=ES, O=Stratio, CN=agent-2
        Subject Public Key Info:
            Public Key Algorithm: rsaEncryption
                RSA Public-Key: (2048 bit)
                Modulus:
                    00:d6:80:46:93:c3:fa:f9:2d:8f:ab:ee:3b:52:09:
                    7c:58:03:4f:29:34:09:78:ad:12:1d:ba:76:bf:4a:
                    c5:a9:44:b0:0c:3c:d1:ac:e6:93:12:12:d5:28:ec:
                    46:5d:fc:3b:62:5e:35:2d:28:2d:d1:8a:ba:f4:6b:
                    70:e4:02:59:06:b5:5e:bb:75:5c:93:02:76:7b:d9:
                    98:5a:82:a7:db:0c:6b:45:a4:23:86:93:22:02:5e:
                    9b:5f:5b:b8:20:5f:07:24:f6:89:86:21:40:58:28:
                    f1:2e:af:ee:f5:15:4b:7d:22:11:65:95:3b:e7:dc:
                    16:d4:60:5f:ff:20:5a:6e:18:fa:ea:c1:2a:1b:a7:
                    e7:ad:19:03:2d:08:4f:1e:a6:4c:bd:d9:6c:b3:01:
                    97:1b:f9:2d:a2:bd:6c:bc:33:dc:e4:c5:86:d7:9a:
                    99:5e:1e:47:61:61:0c:d3:89:da:6a:b3:93:88:f4:
                    c2:c6:65:77:50:ed:e5:25:77:e7:90:d5:e2:6b:1b:
                    c4:ac:6b:75:30:2e:32:71:d3:29:6c:0d:0c:d0:a1:
                    6e:e0:35:4f:a4:30:2a:9f:1f:5e:45:99:cb:64:a4:
                    18:39:d5:b5:b7:8b:c4:fb:b5:21:38:dd:e0:0d:5e:
                    6b:97:68:17:c1:55:0f:d4:83:35:e0:8c:d8:4b:13:
                    35:69
                Exponent: 65537 (0x10001)
        X509v3 extensions:
            Authority Information Access: 
                CA Issuers - URI:http://labs-ca.stratio.com/labs-ca.crt
                OCSP - URI:http://ocsp.labs-ca.stratio.com:9081

            X509v3 Authority Key Identifier: 
                keyid:09:29:3F:86:66:E6:A2:74:16:B9:F5:E2:24:ED:B6:14:82:AD:75:52

            X509v3 Basic Constraints: critical
                CA:FALSE
            X509v3 CRL Distribution Points: 

                Full Name:
                  URI:http://labs-ca.stratio.com/labs-ca.crl

            X509v3 Extended Key Usage: 
                TLS Web Client Authentication, TLS Web Server Authentication
            X509v3 Key Usage: critical
                Digital Signature, Key Encipherment
            X509v3 Subject Key Identifier: 
                CB:2E:E6:9B:41:D2:81:2C:88:6D:2F:18:94:F0:0F:A6:4C:FC:C7:79
            X509v3 Subject Alternative Name: 
                DNS:agent-2, DNS:agent-2.kraken.cluster, DNS:registry, DNS:registry.kraken.cluster
    Signature Algorithm: sha256WithRSAEncryption
         1d:6f:19:51:df:69:f3:93:3e:bb:27:93:d1:9a:b5:e4:a8:b2:
         c3:08:48:d1:c1:c5:b7:83:4f:db:41:2f:fe:1c:89:8b:c7:84:
         0e:96:35:7b:b6:7e:95:e9:80:60:8c:81:cc:f3:31:29:21:79:
         e1:16:00:35:45:f5:eb:a8:7c:40:0b:e5:a8:6e:1c:e9:cf:bc:
         0d:cd:6f:cd:93:e7:c7:83:3c:77:13:d1:a6:44:6e:8a:3e:69:
         47:92:ba:4e:d4:7e:09:62:4b:d1:d6:ec:ff:92:ff:0d:53:b8:
         86:d1:fd:8b:28:14:44:fb:94:ce:95:21:6e:46:13:cf:cf:cb:
         19:a1:70:8d:12:60:c9:30:18:08:92:0c:d3:53:c8:a3:1a:69:
         a6:48:e5:d3:f3:bd:13:2a:27:8c:8e:cd:8d:1f:02:71:10:84:
         bb:1f:a6:a0:c7:94:17:43:a8:5e:4a:c9:c1:8b:4b:9d:5f:e8:
         1d:9c:ab:6e:09:0e:1c:e3:7f:ab:7a:81:ce:cb:e0:ed:7c:19:
         dc:d5:b0:ed:2c:c3:ff:62:7e:f7:13:18:2a:cf:66:a5:47:97:
         5e:f6:e1:92:a9:fd:5d:9b:63:4e:51:ff:b7:c1:bf:c7:60:9e:
         21:4a:6e:ed:07:a5:29:3d:90:b8:54:7d:b5:cf:9a:81:33:28:
         31:bc:3f:11:25:f0:85:e9:51:26:8e:01:75:67:88:80:30:f1:
         e9:90:a9:36:53:05:13:a6:45:19:83:41:47:f2:31:15:cd:56:
         98:41:f0:eb:14:b3:fc:72:6e:e7:bf:84:be:49:61:82:c3:3b:
         62:09:b6:04:ae:ee:84:e6:43:3b:60:79:96:d1:88:e2:45:b6:
         fe:e5:9c:0c:cd:1e:f0:71:21:3b:c6:4f:c2:38:b3:9a:b9:4d:
         fa:7c:78:08:45:a6:8c:3a:7c:32:10:6f:38:ee:e1:72:d1:81:
         18:cb:6c:d7:e4:5b:d8:6f:22:51:c8:a6:f1:c5:55:2d:74:4b:
         33:89:e9:7c:77:7b:ae:69:33:7a:d8:6d:28:6d:ce:4c:fc:6a:
         70:2c:67:a7:3a:58:57:f9:fd:d8:f3:37:33:36:57:95:3e:77:
         b2:0d:32:2f:98:f4:a4:08:f1:a5:ba:19:f9:ec:4a:b1:3b:6a:
         69:e6:42:e9:ae:a1:ce:89:a6:35:b9:d3:c2:74:a1:cb:b5:4c:
         46:1d:e3:78:e8:8d:bf:49:af:65:c1:cf:63:5a:74:ec:d9:56:
         25:52:ff:6a:53:9c:2e:3e:f1:2b:ed:2a:b7:6b:02:9b:56:fc:
         0c:42:6a:1f:fd:4d:19:f5:70:c9:46:4e:68:50:90:29:9f:04:
         b3:1b:ee:62:e9:e5:45:0f
-----BEGIN CERTIFICATE-----
MIIFcjCCA1qgAwIBAgIQFEM9ahGmdq9dCYJYLZJHAzANBgkqhkiG9w0BAQsFADA2
MQswCQYDVQQGEwJFUzEQMA4GA1UECgwHU3RyYXRpbzEVMBMGA1UEAwwMTGFicyB0
ZWFtIENBMB4XDTIwMDMzMDEzMDkyMFoXDTIxMDMzMDEzMDkyMFowMTELMAkGA1UE
BhMCRVMxEDAOBgNVBAoMB1N0cmF0aW8xEDAOBgNVBAMMB2FnZW50LTIwggEiMA0G
CSqGSIb3DQEBAQUAA4IBDwAwggEKAoIBAQDWgEaTw/r5LY+r7jtSCXxYA08pNAl4
rRIduna/SsWpRLAMPNGs5pMSEtUo7EZd/DtiXjUtKC3Rirr0a3DkAlkGtV67dVyT
AnZ72ZhagqfbDGtFpCOGkyICXptfW7ggXwck9omGIUBYKPEur+71FUt9IhFllTvn
3BbUYF//IFpuGPrqwSobp+etGQMtCE8epky92WyzAZcb+S2ivWy8M9zkxYbXmple
HkdhYQzTidpqs5OI9MLGZXdQ7eUld+eQ1eJrG8Ssa3UwLjJx0ylsDQzQoW7gNU+k
MCqfH15FmctkpBg51bW3i8T7tSE43eANXmuXaBfBVQ/UgzXgjNhLEzVpAgMBAAGj
ggF/MIIBezB0BggrBgEFBQcBAQRoMGYwMgYIKwYBBQUHMAKGJmh0dHA6Ly9sYWJz
LWNhLnN0cmF0aW8uY29tL2xhYnMtY2EuY3J0MDAGCCsGAQUFBzABhiRodHRwOi8v
b2NzcC5sYWJzLWNhLnN0cmF0aW8uY29tOjkwODEwHwYDVR0jBBgwFoAUCSk/hmbm
onQWufXiJO22FIKtdVIwDAYDVR0TAQH/BAIwADA3BgNVHR8EMDAuMCygKqAohiZo
dHRwOi8vbGFicy1jYS5zdHJhdGlvLmNvbS9sYWJzLWNhLmNybDAdBgNVHSUEFjAU
BggrBgEFBQcDAgYIKwYBBQUHAwEwDgYDVR0PAQH/BAQDAgWgMB0GA1UdDgQWBBTL
LuabQdKBLIhtLxiU8A+mTPzHeTBNBgNVHREERjBEggdhZ2VudC0yghZhZ2VudC0y
LmtyYWtlbi5jbHVzdGVygghyZWdpc3RyeYIXcmVnaXN0cnkua3Jha2VuLmNsdXN0
ZXIwDQYJKoZIhvcNAQELBQADggIBAB1vGVHfafOTPrsnk9GateSossMISNHBxbeD
T9tBL/4ciYvHhA6WNXu2fpXpgGCMgczzMSkheeEWADVF9euofEAL5ahuHOnPvA3N
b82T58eDPHcT0aZEboo+aUeSuk7UfgliS9HW7P+S/w1TuIbR/YsoFET7lM6VIW5G
E8/PyxmhcI0SYMkwGAiSDNNTyKMaaaZI5dPzvRMqJ4yOzY0fAnEQhLsfpqDHlBdD
qF5KycGLS51f6B2cq24JDhzjf6t6gc7L4O18GdzVsO0sw/9ifvcTGCrPZqVHl172
4ZKp/V2bY05R/7fBv8dgniFKbu0HpSk9kLhUfbXPmoEzKDG8PxEl8IXpUSaOAXVn
iIAw8emQqTZTBROmRRmDQUfyMRXNVphB8OsUs/xybue/hL5JYYLDO2IJtgSu7oTm
QztgeZbRiOJFtv7lnAzNHvBxITvGT8I4s5q5Tfp8eAhFpow6fDIQbzju4XLRgRjL
bNfkW9hvIlHIpvHFVS10SzOJ6Xx3e65pM3rYbShtzkz8anAsZ6c6WFf5/djzNzM2
V5U+d7INMi+Y9KQI8aW6GfnsSrE7amnmQumuoc6JpjW508J0ocu1TEYd43jojb9J
r2XBz2NadOzZViVS/2pTnC4+8SvtKrdrAptW/AxCah/9TRn1cMlGTmhQkCmfBLMb
7mLp5UUP
-----END CERTIFICATE-----
-----BEGIN CERTIFICATE-----
MIIFOjCCAyKgAwIBAgIQdWSbQJ/CYk1/BERap1nTPTANBgkqhkiG9w0BAQsFADA4
MQswCQYDVQQGEwJFUzEQMA4GA1UECgwHU3RyYXRpbzEXMBUGA1UEAwwOU3RyYXRp
byBJbmMgQ0EwHhcNMTYxMDIxMTUxNjEyWhcNMjYxMDE5MTUxNjEyWjA2MQswCQYD
VQQGEwJFUzEQMA4GA1UECgwHU3RyYXRpbzEVMBMGA1UEAwwMTGFicyB0ZWFtIENB
MIICIjANBgkqhkiG9w0BAQEFAAOCAg8AMIICCgKCAgEAtMw5w9bxjXur+T3A/sFE
cDCKxvKWU1Um86puh36D3Zc55/aTpNzq8UqyEtTUbr9xuqpkriQWPZcS3CZEDW0w
nEXmZ6/ukQ059T9wv6P+YGEXMqaVHn3qPGwiZ8WbClVrGfDwTl+9sfqvfR6keJq8
rJkxE21ECW94ikI7Tk19s0Rz62xf+/FFRndQbTsech9Opi4TC2zMd9h9rPyRwfSm
VHMKPmqm+nnAoDjBlUalxjt+n7Vs269ZBqfusn25Em+BIMwU4z13csHIuZuB/mvm
qipxc2VHHrvhlCeoSgqWnNvmok4D8Ug+9sASAKYn1stdkSxCqwLLWb9PR/fUcqor
vz1S8KNc07c7IIt2ip5sXGWSJKIazak4CHiJGEQ11jO4NOFsXp+tDaQgT/21Aq45
zHJyf9ymT8c0ztwe9oQI1UYXHyopfyW1o9Ca5/MxQeXWcCPEFE1IMoA/e6vDWF09
liDOZl94lSwZ2ev+zGGDN+WU4ZojCbjdLCv/tbuSdyiTd4jV6dCShObyWMc6l+TA
fHvHFkxD29MDC165evoSXWMZtqriyt2h/9kWmqgblpz0oJ4kFPQ9RY5n34FHMSva
bkSTWkjcV8m6/4YDaRWYTo7a+ObJ9a6sk0J8pfYYcpwn4QoFS+12IA95ea51TWN1
bEoIFaVEqBDy5y3Qe7JSWNkCAwEAAaNCMEAwDwYDVR0TAQH/BAUwAwEB/zAOBgNV
HQ8BAf8EBAMCAQYwHQYDVR0OBBYEFAkpP4Zm5qJ0Frn14iTtthSCrXVSMA0GCSqG
SIb3DQEBCwUAA4ICAQA/Pnv9Lf/Ic/EeJYjFGZ84bICIZ/cFFNPcb4lWc7zJNOg2
690t748MwqDUQYvCL4f5Dh+rvssLxK/FlMGDiw4UrZGHdHS5u3bTTUrbwG1NHQKR
nthdz1xtx/TlBn4NvqVokcB7AkC5XVwpTvvVvcgpRp+ffYK3gd6arOb6oOOzRYDa
wFgPEZdZrbREh9p1k0NpbkUcmNiNMjQhV+DqVvGI+pYTOP4686Q4PvC7OGma5X3T
0MWwUJ3iMPdo4qAGJB8GV4XbyPapMd7vqFzsf18yAKmT9Q2afr1U1KCQ/zourY1u
qBeor5CzJzCDqLDxgXrBauVwB844Epa24x98RQGfZuIULZGPn0Sf8sF4L2bwmBBQ
M29yAWO4DLEZU0yqQTUHV7oJmNN+i0iE4wNSlC/Gz/wV3LCG+tseQkgvRziN8hwo
TGg6n9EvT2NdD0QpzJ2D7PQeJIytKEYzJKVRCZkn3Xcoy1SzIKiG0xDLME22rjFu
vWFyw1r/OnErIM7RL4GLZ3gAm00CRq4e2GarcEeLAq1d7rcSxV5/84pOIX9mH7PN
JTg5js6pOn9hrZWmmwRKYYVTPFqkAlTurrO0NjOT/kmDdHT0Xnaq0LRg0bKa79iD
JcylT5C08PAJX5S9esPXhNwS6rxMwk1ApmdE5USs/hn3geDAebJ0aRwIwnX5+g==
-----END CERTIFICATE-----
-----BEGIN CERTIFICATE-----
MIIFPDCCAySgAwIBAgIQdWSbQJ/CYk1/BERap1nTNjANBgkqhkiG9w0BAQsFADA4
MQswCQYDVQQGEwJFUzEQMA4GA1UECgwHU3RyYXRpbzEXMBUGA1UEAwwOU3RyYXRp
byBJbmMgQ0EwHhcNMTYwMjE5MTEzODI2WhcNMjYwMjE2MTEzODI2WjA4MQswCQYD
VQQGEwJFUzEQMA4GA1UECgwHU3RyYXRpbzEXMBUGA1UEAwwOU3RyYXRpbyBJbmMg
Q0EwggIiMA0GCSqGSIb3DQEBAQUAA4ICDwAwggIKAoICAQC2boA0hxlI9cDcSrt9
56lPnNuQ0ek/NnuWw6dsGXZeC1RHBR5m3/0jGnKRMpW2PpmTp7eG2ngOCbZMd5tG
hZHoposlCHSjRrJvhXWPRDP52WvtSgsckcJtKw1uoo3lqZGBPAHpvg3ExxcWY8Q/
b7H3Rc0zY2nM/whiayJPwO4+wE3gGiQwFrvsaekFjX/bNwBnZRiSAHm6iYeL0qfw
vSUwBcs0Wzh2yCKOuNqnuk+xFy3iaj5ADWGDxhm4Qf4q5UKJCriYZnWWSn0CDIHl
ZPc05sXERO52OCyzAG5Bm8qCGeCBtgpFQtHf72gbJFfSqJKs0VQ7U8N9ucI3NAEp
vt0NDXALF+4EoyV+0vCrq4U5f7geUSKPSEZWI2lpyz+NCZ95BrTFSHLDuNsTXJLn
mJjOYCymAm5luKA6DQw3HyNXIndgKV2e5BfhSWx3HP4J0DxO7kB2F1APUSijNZAe
2x6x+SO85CR6dT46pEvoGypD8EiRRoDHbQ8Vw1ulVh8nXoJzCs8v3exQUt1ZG7G1
Pcmp/S4xPF0Y6/HP0IIe2pxJ4uzOYaaARki3AI8pwHfD6OON6tRC0wjnPB4qYPta
nVJo4Nr/UWmq8vpgLKrI2kE3ceiPkNgb7/cXepyseTDBQidvCwV/ZyixmafwDgDi
02zN/FI4yS3aMtpyXtrTkKlLXwIDAQABo0IwQDAPBgNVHRMBAf8EBTADAQH/MA4G
A1UdDwEB/wQEAwIBBjAdBgNVHQ4EFgQU1T68/Oa44A7bgn6wxN1deQVukKQwDQYJ
KoZIhvcNAQELBQADggIBAEGTbgPUdRcWCgLclrbIOJ9wNC/T0LhmAuMyPtXJVfoj
aH1XlWWGZw9CTAD0/d/W1cE0QwLi7MI0IWV6Lb4VjaogXIga7ND5uLzZ5iJb7SK8
+gjK0d8hpGUKrwLzS6jUuL4vieM9DF7/VPi4EJm4EL35QfNpnb4Y17yOY1FZwZjt
wlPZWGrG0plRTi70/Mgic4a3KtC1I33RUUruF3nk+Fm+VEJJzmoOi01JwDwuM1hT
6lI4USNLp2vy4l1iJSdBSlwwNEthv1C/eHqC2XkH8Kr6kufW8s2Cnqu1tHJ/U+ns
/m5dDcrP22i/toDKVwOdquFdB4bg42PWyKeQi85UlHVSPwlTiB7gXZi97vtIDlIf
YZ6V3zy4fSUudaBXEm4IOY7IoRFB1zoqSj86KtufjOLAfqAcUFqYJGKEIfjbGist
agDKh5VRTtmgWnCSp252h27UHrYMWSv9/oi6H7m9dv5ZBuUgeYnxsgZYDgic4xA8
0POOWAiMwYdoIQwQghdGLRDuXT8krg8/ery42xmIvqW0xpJzROAVzWgtEUFFtFfM
nrFjf2b4o6Mw8A6AflbL1zeRuum/Uz+sFVVSUS1uzWrIRSTN6M2tRpu6EuRuNCJk
NXxqQ5v3iBCpoKsXEBqDeymnT4WEFqv+Rq2ZHbticZ+vXbu8039fau7bdmVS9Bjj
-----END CERTIFICATE-----
