Certificate:
    Data:
        Version: 3 (0x2)
        Serial Number:
            14:43:3d:6a:11:a6:76:af:5d:09:82:58:2d:92:47:01
        Signature Algorithm: sha256WithRSAEncryption
        Issuer: C=ES, O=Stratio, CN=Labs team CA
        Validity
            Not Before: Mar 30 13:09:19 2020 GMT
            Not After : Mar 30 13:09:19 2021 GMT
        Subject: C=ES, O=Stratio, CN=agent-1
        Subject Public Key Info:
            Public Key Algorithm: rsaEncryption
                RSA Public-Key: (2048 bit)
                Modulus:
                    00:b8:a1:ef:d0:8c:a8:9e:e4:71:3c:cc:51:b6:e7:
                    59:35:42:aa:f5:90:26:80:4b:06:d3:8e:44:11:71:
                    20:93:a5:d2:90:26:7c:0a:8a:f0:cf:23:cf:29:49:
                    f5:f5:ea:69:9a:c6:38:60:1f:f2:5d:f1:07:84:14:
                    59:55:6b:ef:2f:a2:4a:91:e4:18:7e:50:55:68:0a:
                    33:21:60:be:4a:71:b1:fe:15:9c:0e:e5:a4:09:fc:
                    39:02:99:c9:b6:4f:95:d7:cd:15:86:3b:7b:75:85:
                    9b:05:4b:98:3f:95:57:1b:5c:60:77:bd:f2:eb:f5:
                    a8:78:f9:54:4a:2c:ff:f9:a2:7c:4a:fd:f2:ea:63:
                    33:16:63:be:fa:70:66:47:23:17:20:14:ed:95:3c:
                    43:c7:5a:ca:42:94:1c:10:fe:60:ea:ba:69:8a:7d:
                    4d:25:0f:4a:83:e0:5c:0b:4f:56:73:2d:6f:1b:ca:
                    f4:99:73:f9:3d:2f:8d:23:0d:1b:1e:32:43:4b:f9:
                    09:d5:e8:12:df:2d:2a:67:84:dd:7b:cc:43:4f:ed:
                    49:a6:3f:8d:2e:73:14:13:98:bc:16:15:9f:c3:b7:
                    8e:7e:bf:ac:f8:ad:35:00:48:e9:d2:71:cc:01:11:
                    70:c1:7c:37:3e:2b:61:a5:00:fd:2c:78:64:79:37:
                    5a:e9
                Exponent: 65537 (0x10001)
        X509v3 extensions:
            Authority Information Access: 
                CA Issuers - URI:http://labs-ca.stratio.com/labs-ca.crt
                OCSP - URI:http://ocsp.labs-ca.stratio.com:9081

            X509v3 Authority Key Identifier: 
                keyid:09:29:3F:86:66:E6:A2:74:16:B9:F5:E2:24:ED:B6:14:82:AD:75:52

            X509v3 Basic Constraints: critical
                CA:FALSE
            X509v3 CRL Distribution Points: 

                Full Name:
                  URI:http://labs-ca.stratio.com/labs-ca.crl

            X509v3 Extended Key Usage: 
                TLS Web Client Authentication, TLS Web Server Authentication
            X509v3 Key Usage: critical
                Digital Signature, Key Encipherment
            X509v3 Subject Key Identifier: 
                AA:7B:16:8B:BF:0A:9B:71:CB:7F:D7:9E:47:B1:55:7F:9E:0A:DC:2F
            X509v3 Subject Alternative Name: 
                DNS:agent-1, DNS:agent-1.kraken.cluster, DNS:registry, DNS:registry.kraken.cluster
    Signature Algorithm: sha256WithRSAEncryption
         69:69:bb:fa:1b:69:ff:5a:bf:80:12:80:ca:83:24:d4:1c:06:
         4f:da:ec:ec:c9:9c:1c:04:3b:c7:4a:c0:8a:88:8d:eb:ed:06:
         6c:99:f8:af:99:5f:08:92:c1:7b:4a:72:07:ea:fc:fd:3a:2f:
         dc:1b:be:3d:aa:6d:3e:46:66:26:91:65:37:72:27:c7:82:a2:
         b3:3e:70:cd:22:65:97:db:d1:08:3b:02:37:b4:a3:aa:6e:64:
         60:6f:8c:c5:21:c3:9e:d7:c1:12:b8:9b:d0:c0:75:fe:2e:a5:
         7a:72:78:f1:96:85:f8:26:04:f0:e5:c8:8b:3c:c9:1b:fd:ef:
         a5:96:29:6b:02:7f:8b:d2:0c:3d:af:95:8d:5b:1d:81:73:f1:
         70:86:0b:13:e6:a3:37:fd:59:ae:eb:f5:46:1d:82:97:5f:96:
         fa:ce:97:34:00:7f:89:a4:03:e3:69:b2:ee:29:04:ad:2e:d5:
         81:b1:b0:13:86:2b:cb:d3:79:77:a0:51:8c:d1:94:7f:0e:25:
         f3:41:2d:5e:ff:fc:19:03:1f:33:e9:75:14:fd:42:c9:00:24:
         1e:d7:1e:86:c0:2d:6a:34:8f:eb:e5:03:8c:4a:58:28:c1:62:
         74:ed:94:97:fa:5b:2d:c8:ec:f9:a8:cd:a6:10:ac:a7:c7:86:
         8c:a2:6b:68:45:02:df:68:ad:80:ab:8c:16:bf:62:94:ca:aa:
         3c:38:dd:6d:60:4d:c2:33:af:b0:5d:e5:33:f9:d9:0e:29:11:
         02:56:7e:af:a9:91:a7:f8:2b:b1:64:2c:1f:d7:33:d9:f6:6d:
         43:5a:4c:eb:27:19:70:96:28:ff:d1:97:d5:a4:08:7f:f3:b2:
         46:3e:50:6d:cc:27:9f:ae:5a:1f:4a:f9:13:79:6f:ea:16:95:
         41:bd:0d:f7:36:43:74:d4:2e:b1:cb:ad:a9:4a:8f:6b:51:45:
         fa:54:b2:2a:03:62:31:c3:62:7f:3e:c7:d0:b7:be:ca:28:48:
         d5:e6:db:cf:92:79:91:a8:a8:e9:13:ff:89:dd:3c:55:53:41:
         b6:08:ba:58:62:2d:47:23:f6:10:35:fd:d1:4c:5d:90:2c:7c:
         d7:60:3e:73:d8:18:50:f5:97:2a:8f:bd:1a:cd:f1:12:87:38:
         23:24:33:98:bf:dc:1b:28:11:ec:01:4e:40:7f:99:d9:64:77:
         eb:f0:42:3b:75:08:5b:03:1a:1c:b2:c6:b7:8b:bb:33:d7:06:
         1e:63:55:a0:57:84:1e:ca:20:be:0e:0e:e8:c0:fc:2d:21:71:
         f0:e8:15:e8:3a:9f:75:b4:cb:24:67:99:6a:81:2f:93:d9:a0:
         01:c9:5f:74:19:4a:72:77
-----BEGIN CERTIFICATE-----
MIIFcjCCA1qgAwIBAgIQFEM9ahGmdq9dCYJYLZJHATANBgkqhkiG9w0BAQsFADA2
MQswCQYDVQQGEwJFUzEQMA4GA1UECgwHU3RyYXRpbzEVMBMGA1UEAwwMTGFicyB0
ZWFtIENBMB4XDTIwMDMzMDEzMDkxOVoXDTIxMDMzMDEzMDkxOVowMTELMAkGA1UE
BhMCRVMxEDAOBgNVBAoMB1N0cmF0aW8xEDAOBgNVBAMMB2FnZW50LTEwggEiMA0G
CSqGSIb3DQEBAQUAA4IBDwAwggEKAoIBAQC4oe/QjKie5HE8zFG251k1Qqr1kCaA
SwbTjkQRcSCTpdKQJnwKivDPI88pSfX16mmaxjhgH/Jd8QeEFFlVa+8vokqR5Bh+
UFVoCjMhYL5KcbH+FZwO5aQJ/DkCmcm2T5XXzRWGO3t1hZsFS5g/lVcbXGB3vfLr
9ah4+VRKLP/5onxK/fLqYzMWY776cGZHIxcgFO2VPEPHWspClBwQ/mDqummKfU0l
D0qD4FwLT1ZzLW8byvSZc/k9L40jDRseMkNL+QnV6BLfLSpnhN17zENP7UmmP40u
cxQTmLwWFZ/Dt45+v6z4rTUASOnSccwBEXDBfDc+K2GlAP0seGR5N1rpAgMBAAGj
ggF/MIIBezB0BggrBgEFBQcBAQRoMGYwMgYIKwYBBQUHMAKGJmh0dHA6Ly9sYWJz
LWNhLnN0cmF0aW8uY29tL2xhYnMtY2EuY3J0MDAGCCsGAQUFBzABhiRodHRwOi8v
b2NzcC5sYWJzLWNhLnN0cmF0aW8uY29tOjkwODEwHwYDVR0jBBgwFoAUCSk/hmbm
onQWufXiJO22FIKtdVIwDAYDVR0TAQH/BAIwADA3BgNVHR8EMDAuMCygKqAohiZo
dHRwOi8vbGFicy1jYS5zdHJhdGlvLmNvbS9sYWJzLWNhLmNybDAdBgNVHSUEFjAU
BggrBgEFBQcDAgYIKwYBBQUHAwEwDgYDVR0PAQH/BAQDAgWgMB0GA1UdDgQWBBSq
exaLvwqbcct/155HsVV/ngrcLzBNBgNVHREERjBEggdhZ2VudC0xghZhZ2VudC0x
LmtyYWtlbi5jbHVzdGVygghyZWdpc3RyeYIXcmVnaXN0cnkua3Jha2VuLmNsdXN0
ZXIwDQYJKoZIhvcNAQELBQADggIBAGlpu/obaf9av4ASgMqDJNQcBk/a7OzJnBwE
O8dKwIqIjevtBmyZ+K+ZXwiSwXtKcgfq/P06L9wbvj2qbT5GZiaRZTdyJ8eCorM+
cM0iZZfb0Qg7Aje0o6puZGBvjMUhw57XwRK4m9DAdf4upXpyePGWhfgmBPDlyIs8
yRv976WWKWsCf4vSDD2vlY1bHYFz8XCGCxPmozf9Wa7r9UYdgpdflvrOlzQAf4mk
A+Npsu4pBK0u1YGxsBOGK8vTeXegUYzRlH8OJfNBLV7//BkDHzPpdRT9QskAJB7X
HobALWo0j+vlA4xKWCjBYnTtlJf6Wy3I7PmozaYQrKfHhoyia2hFAt9orYCrjBa/
YpTKqjw43W1gTcIzr7Bd5TP52Q4pEQJWfq+pkaf4K7FkLB/XM9n2bUNaTOsnGXCW
KP/Rl9WkCH/zskY+UG3MJ5+uWh9K+RN5b+oWlUG9Dfc2Q3TULrHLralKj2tRRfpU
sioDYjHDYn8+x9C3vsooSNXm28+SeZGoqOkT/4ndPFVTQbYIulhiLUcj9hA1/dFM
XZAsfNdgPnPYGFD1lyqPvRrN8RKHOCMkM5i/3BsoEewBTkB/mdlkd+vwQjt1CFsD
GhyyxreLuzPXBh5jVaBXhB7KIL4ODujA/C0hcfDoFeg6n3W0yyRnmWqBL5PZoAHJ
X3QZSnJ3
-----END CERTIFICATE-----
-----BEGIN CERTIFICATE-----
MIIFOjCCAyKgAwIBAgIQdWSbQJ/CYk1/BERap1nTPTANBgkqhkiG9w0BAQsFADA4
MQswCQYDVQQGEwJFUzEQMA4GA1UECgwHU3RyYXRpbzEXMBUGA1UEAwwOU3RyYXRp
byBJbmMgQ0EwHhcNMTYxMDIxMTUxNjEyWhcNMjYxMDE5MTUxNjEyWjA2MQswCQYD
VQQGEwJFUzEQMA4GA1UECgwHU3RyYXRpbzEVMBMGA1UEAwwMTGFicyB0ZWFtIENB
MIICIjANBgkqhkiG9w0BAQEFAAOCAg8AMIICCgKCAgEAtMw5w9bxjXur+T3A/sFE
cDCKxvKWU1Um86puh36D3Zc55/aTpNzq8UqyEtTUbr9xuqpkriQWPZcS3CZEDW0w
nEXmZ6/ukQ059T9wv6P+YGEXMqaVHn3qPGwiZ8WbClVrGfDwTl+9sfqvfR6keJq8
rJkxE21ECW94ikI7Tk19s0Rz62xf+/FFRndQbTsech9Opi4TC2zMd9h9rPyRwfSm
VHMKPmqm+nnAoDjBlUalxjt+n7Vs269ZBqfusn25Em+BIMwU4z13csHIuZuB/mvm
qipxc2VHHrvhlCeoSgqWnNvmok4D8Ug+9sASAKYn1stdkSxCqwLLWb9PR/fUcqor
vz1S8KNc07c7IIt2ip5sXGWSJKIazak4CHiJGEQ11jO4NOFsXp+tDaQgT/21Aq45
zHJyf9ymT8c0ztwe9oQI1UYXHyopfyW1o9Ca5/MxQeXWcCPEFE1IMoA/e6vDWF09
liDOZl94lSwZ2ev+zGGDN+WU4ZojCbjdLCv/tbuSdyiTd4jV6dCShObyWMc6l+TA
fHvHFkxD29MDC165evoSXWMZtqriyt2h/9kWmqgblpz0oJ4kFPQ9RY5n34FHMSva
bkSTWkjcV8m6/4YDaRWYTo7a+ObJ9a6sk0J8pfYYcpwn4QoFS+12IA95ea51TWN1
bEoIFaVEqBDy5y3Qe7JSWNkCAwEAAaNCMEAwDwYDVR0TAQH/BAUwAwEB/zAOBgNV
HQ8BAf8EBAMCAQYwHQYDVR0OBBYEFAkpP4Zm5qJ0Frn14iTtthSCrXVSMA0GCSqG
SIb3DQEBCwUAA4ICAQA/Pnv9Lf/Ic/EeJYjFGZ84bICIZ/cFFNPcb4lWc7zJNOg2
690t748MwqDUQYvCL4f5Dh+rvssLxK/FlMGDiw4UrZGHdHS5u3bTTUrbwG1NHQKR
nthdz1xtx/TlBn4NvqVokcB7AkC5XVwpTvvVvcgpRp+ffYK3gd6arOb6oOOzRYDa
wFgPEZdZrbREh9p1k0NpbkUcmNiNMjQhV+DqVvGI+pYTOP4686Q4PvC7OGma5X3T
0MWwUJ3iMPdo4qAGJB8GV4XbyPapMd7vqFzsf18yAKmT9Q2afr1U1KCQ/zourY1u
qBeor5CzJzCDqLDxgXrBauVwB844Epa24x98RQGfZuIULZGPn0Sf8sF4L2bwmBBQ
M29yAWO4DLEZU0yqQTUHV7oJmNN+i0iE4wNSlC/Gz/wV3LCG+tseQkgvRziN8hwo
TGg6n9EvT2NdD0QpzJ2D7PQeJIytKEYzJKVRCZkn3Xcoy1SzIKiG0xDLME22rjFu
vWFyw1r/OnErIM7RL4GLZ3gAm00CRq4e2GarcEeLAq1d7rcSxV5/84pOIX9mH7PN
JTg5js6pOn9hrZWmmwRKYYVTPFqkAlTurrO0NjOT/kmDdHT0Xnaq0LRg0bKa79iD
JcylT5C08PAJX5S9esPXhNwS6rxMwk1ApmdE5USs/hn3geDAebJ0aRwIwnX5+g==
-----END CERTIFICATE-----
-----BEGIN CERTIFICATE-----
MIIFPDCCAySgAwIBAgIQdWSbQJ/CYk1/BERap1nTNjANBgkqhkiG9w0BAQsFADA4
MQswCQYDVQQGEwJFUzEQMA4GA1UECgwHU3RyYXRpbzEXMBUGA1UEAwwOU3RyYXRp
byBJbmMgQ0EwHhcNMTYwMjE5MTEzODI2WhcNMjYwMjE2MTEzODI2WjA4MQswCQYD
VQQGEwJFUzEQMA4GA1UECgwHU3RyYXRpbzEXMBUGA1UEAwwOU3RyYXRpbyBJbmMg
Q0EwggIiMA0GCSqGSIb3DQEBAQUAA4ICDwAwggIKAoICAQC2boA0hxlI9cDcSrt9
56lPnNuQ0ek/NnuWw6dsGXZeC1RHBR5m3/0jGnKRMpW2PpmTp7eG2ngOCbZMd5tG
hZHoposlCHSjRrJvhXWPRDP52WvtSgsckcJtKw1uoo3lqZGBPAHpvg3ExxcWY8Q/
b7H3Rc0zY2nM/whiayJPwO4+wE3gGiQwFrvsaekFjX/bNwBnZRiSAHm6iYeL0qfw
vSUwBcs0Wzh2yCKOuNqnuk+xFy3iaj5ADWGDxhm4Qf4q5UKJCriYZnWWSn0CDIHl
ZPc05sXERO52OCyzAG5Bm8qCGeCBtgpFQtHf72gbJFfSqJKs0VQ7U8N9ucI3NAEp
vt0NDXALF+4EoyV+0vCrq4U5f7geUSKPSEZWI2lpyz+NCZ95BrTFSHLDuNsTXJLn
mJjOYCymAm5luKA6DQw3HyNXIndgKV2e5BfhSWx3HP4J0DxO7kB2F1APUSijNZAe
2x6x+SO85CR6dT46pEvoGypD8EiRRoDHbQ8Vw1ulVh8nXoJzCs8v3exQUt1ZG7G1
Pcmp/S4xPF0Y6/HP0IIe2pxJ4uzOYaaARki3AI8pwHfD6OON6tRC0wjnPB4qYPta
nVJo4Nr/UWmq8vpgLKrI2kE3ceiPkNgb7/cXepyseTDBQidvCwV/ZyixmafwDgDi
02zN/FI4yS3aMtpyXtrTkKlLXwIDAQABo0IwQDAPBgNVHRMBAf8EBTADAQH/MA4G
A1UdDwEB/wQEAwIBBjAdBgNVHQ4EFgQU1T68/Oa44A7bgn6wxN1deQVukKQwDQYJ
KoZIhvcNAQELBQADggIBAEGTbgPUdRcWCgLclrbIOJ9wNC/T0LhmAuMyPtXJVfoj
aH1XlWWGZw9CTAD0/d/W1cE0QwLi7MI0IWV6Lb4VjaogXIga7ND5uLzZ5iJb7SK8
+gjK0d8hpGUKrwLzS6jUuL4vieM9DF7/VPi4EJm4EL35QfNpnb4Y17yOY1FZwZjt
wlPZWGrG0plRTi70/Mgic4a3KtC1I33RUUruF3nk+Fm+VEJJzmoOi01JwDwuM1hT
6lI4USNLp2vy4l1iJSdBSlwwNEthv1C/eHqC2XkH8Kr6kufW8s2Cnqu1tHJ/U+ns
/m5dDcrP22i/toDKVwOdquFdB4bg42PWyKeQi85UlHVSPwlTiB7gXZi97vtIDlIf
YZ6V3zy4fSUudaBXEm4IOY7IoRFB1zoqSj86KtufjOLAfqAcUFqYJGKEIfjbGist
agDKh5VRTtmgWnCSp252h27UHrYMWSv9/oi6H7m9dv5ZBuUgeYnxsgZYDgic4xA8
0POOWAiMwYdoIQwQghdGLRDuXT8krg8/ery42xmIvqW0xpJzROAVzWgtEUFFtFfM
nrFjf2b4o6Mw8A6AflbL1zeRuum/Uz+sFVVSUS1uzWrIRSTN6M2tRpu6EuRuNCJk
NXxqQ5v3iBCpoKsXEBqDeymnT4WEFqv+Rq2ZHbticZ+vXbu8039fau7bdmVS9Bjj
-----END CERTIFICATE-----
